; generated by Component: ARM Compiler 5.05 update 1 (build 106) Tool: ArmCC [4d0efa]
; commandline ArmCC [--c99 --list --split_sections --debug -c --asm --interleave -o.\flash\obj\attitudeekf.o --asm_dir=.\Flash\List\ --list_dir=.\Flash\List\ --depend=.\flash\obj\attitudeekf.d --cpu=Cortex-M3 --apcs=interwork -O0 --diag_suppress=9931 -I..\..\Libraries\CMSIS\CM3\CoreSupport -I..\..\Libraries\CMSIS\CM3\DeviceSupport\ST\STM32F10x -I..\..\Libraries\STM32F10x_StdPeriph_Driver\inc -I..\..\Libraries\STM32_USB-FS-Device_Driver\inc -I..\..\User\usb_virture_com -I..\..\User -I..\..\User\bsp -I..\..\User\Driver\IIC -I..\..\User\Driver\LED -I..\..\User\Driver\TIM -I..\..\User\Driver\SPI -I..\..\User\Driver\ADC -I..\..\User\Driver\Delay -I..\..\User\Driver\UART -I..\..\User\Driver\MOTOR -I..\..\User\Driver\PWM_IN -I..\..\User\Driver\EEPROM -I..\..\User\Modules\Modules_mpu6050 -I..\..\User\Modules\Modules_nrf24L01 -I..\..\User\Modules\Modules_hmc5883 -I..\..\User\Algorithm\Algorithm_filter -I..\..\User\Algorithm\Algorithm_math -I..\..\User\Algorithm\Algorithm_sqLite -I..\..\User\Algorithm\Algorithm_quaternion -I..\..\User\Function\MultiRotor_rc -I..\..\User\Function\MultiRotor_app -I..\..\User\Function\MultiRotor_ahrs -I..\..\User\Function\MultiRotor_radio -I..\..\User\Function\MultiRotor_control -I..\..\User\Modules\Modules_oled -I..\..\User\Driver\STMFLASH -I..\..\User\Modules\Modules_ms5611 -I..\..\User\Function\MultiRotor_altitute -I..\..\User\Modules\GPS -I..\..\User\Modules\Modules_ultrasonic -I..\..\User\ANO_DT -I..\..\User\Heigh -I..\..\User\Algorithm\ekf2 -IC:\__Electronic_Projects\STM32\HT_Hawk_0528_1\Project\MDK-ARM(uV5)\RTE -IC:\Keil_v5\ARM\PACK\ARM\CMSIS\4.2.0\CMSIS\Include -IC:\Keil_v5\ARM\PACK\Keil\STM32F1xx_DFP\1.0.5\Device\Include -D__MICROLIB -D__UVISION_VERSION=514 -D_RTE_ -DSTM32F10X_HD -DSTM32F10X_HD -DUSE_STDPERIPH_DRIVER --omf_browse=.\flash\obj\attitudeekf.crf ..\..\User\Algorithm\ekf2\AttitudeEKF.c]
                          THUMB

                          AREA ||i.AttitudeEKF||, CODE, READONLY, ALIGN=2

                  AttitudeEKF PROC
;;;413     */
;;;414    void AttitudeEKF(unsigned char approx_prediction, unsigned char
000000  b50f              PUSH     {r0-r3,lr}
;;;415                     use_inertia_matrix, const unsigned char zFlag[3], float dt,
;;;416                     const float z[9], float q_rotSpeed, float q_rotAcc, float q_acc,
;;;417                     float q_mag, float r_gyro, float r_accel, float r_mag, const
;;;418                     float J[9], float xa_apo[12], float Pa_apo[144], float
;;;419                     Rot_matrix[9], float eulerAngles[3], float debugOutput[4])
;;;420    {
000002  f6ad3d0c          SUB      sp,sp,#0xb0c
;;;421      int i;
;;;422      float fv0[3];
;;;423      int r2;
;;;424      float zek[3];
;;;425      float muk[3];
;;;426      float b_muk[3];
;;;427      float c_muk[3];
;;;428      float fv1[3];
;;;429      float wak[3];
;;;430      float O[9];
;;;431      float b_O[9];
;;;432      static const signed char iv0[9] = { 1, 0, 0, 0, 1, 0, 0, 0, 1 };
;;;433    
;;;434      float fv2[3];
;;;435      float maxval;
;;;436      int r1;
;;;437      float fv3[9];
;;;438      float fv4[3];
;;;439      float x_apr[12];
;;;440      signed char I[144];
;;;441      static float A_lin[144];
;;;442      static const signed char iv1[36] = { 0, 0, 0, 0, 0, 0, 0, 0, 0, 1, 0, 0, 0, 1,
;;;443        0, 0, 0, 1, 0, 0, 0, 0, 0, 0, 0, 0, 0, 0, 0, 0, 0, 0, 0, 0, 0, 0 };
;;;444    
;;;445      static float b_A_lin[144];
;;;446      float v[12];
;;;447      static float P_apr[144];
;;;448      float a[108];
;;;449      static const signed char b_a[108] = { 1, 0, 0, 0, 0, 0, 0, 0, 0, 0, 1, 0, 0, 0,
;;;450        0, 0, 0, 0, 0, 0, 1, 0, 0, 0, 0, 0, 0, 0, 0, 0, 0, 0, 0, 0, 0, 0, 0, 0, 0, 0,
;;;451        0, 0, 0, 0, 0, 0, 0, 0, 0, 0, 0, 0, 0, 0, 0, 0, 0, 1, 0, 0, 0, 0, 0, 0, 0, 0,
;;;452        0, 1, 0, 0, 0, 0, 0, 0, 0, 0, 0, 1, 0, 0, 0, 0, 0, 0, 0, 0, 0, 1, 0, 0, 0, 0,
;;;453        0, 0, 0, 0, 0, 1, 0, 0, 0, 0, 0, 0, 0, 0, 0, 1 };
;;;454    
;;;455      float S_k[81];
;;;456      static const signed char b[108] = { 1, 0, 0, 0, 0, 0, 0, 0, 0, 0, 0, 0, 0, 1,
;;;457        0, 0, 0, 0, 0, 0, 0, 0, 0, 0, 0, 0, 1, 0, 0, 0, 0, 0, 0, 0, 0, 0, 0, 0, 0, 0,
;;;458        0, 0, 1, 0, 0, 0, 0, 0, 0, 0, 0, 0, 0, 0, 0, 1, 0, 0, 0, 0, 0, 0, 0, 0, 0, 0,
;;;459        0, 0, 1, 0, 0, 0, 0, 0, 0, 0, 0, 0, 0, 0, 0, 1, 0, 0, 0, 0, 0, 0, 0, 0, 0, 0,
;;;460        0, 0, 1, 0, 0, 0, 0, 0, 0, 0, 0, 0, 0, 0, 0, 1 };
;;;461    
;;;462      float b_r_gyro[9];
;;;463      float K_k[108];
;;;464      float b_S_k[36];
;;;465      static const signed char c_a[36] = { 1, 0, 0, 0, 1, 0, 0, 0, 1, 0, 0, 0, 0, 0,
;;;466        0, 0, 0, 0, 0, 0, 0, 0, 0, 0, 0, 0, 0, 0, 0, 0, 0, 0, 0, 0, 0, 0 };
;;;467    
;;;468      static const signed char b_b[36] = { 1, 0, 0, 0, 0, 0, 0, 0, 0, 0, 0, 0, 0, 1,
;;;469        0, 0, 0, 0, 0, 0, 0, 0, 0, 0, 0, 0, 1, 0, 0, 0, 0, 0, 0, 0, 0, 0 };
;;;470    
;;;471      float c_r_gyro[3];
;;;472      float B[36];
;;;473      int r3;
;;;474      float a21;
;;;475      float Y[36];
;;;476      float d_a[72];
;;;477      static const signed char e_a[72] = { 1, 0, 0, 0, 0, 0, 0, 1, 0, 0, 0, 0, 0, 0,
;;;478        1, 0, 0, 0, 0, 0, 0, 0, 0, 0, 0, 0, 0, 0, 0, 0, 0, 0, 0, 0, 0, 0, 0, 0, 0, 1,
;;;479        0, 0, 0, 0, 0, 0, 1, 0, 0, 0, 0, 0, 0, 1, 0, 0, 0, 0, 0, 0, 0, 0, 0, 0, 0, 0,
;;;480        0, 0, 0, 0, 0, 0 };
;;;481    
;;;482      static const signed char c_b[72] = { 1, 0, 0, 0, 0, 0, 0, 0, 0, 0, 0, 0, 0, 1,
;;;483        0, 0, 0, 0, 0, 0, 0, 0, 0, 0, 0, 0, 1, 0, 0, 0, 0, 0, 0, 0, 0, 0, 0, 0, 0, 0,
;;;484        0, 0, 1, 0, 0, 0, 0, 0, 0, 0, 0, 0, 0, 0, 0, 1, 0, 0, 0, 0, 0, 0, 0, 0, 0, 0,
;;;485        0, 0, 1, 0, 0, 0 };
;;;486    
;;;487      float d_r_gyro[6];
;;;488      float c_S_k[6];
;;;489      float b_K_k[72];
;;;490      static const signed char f_a[72] = { 1, 0, 0, 0, 0, 0, 0, 1, 0, 0, 0, 0, 0, 0,
;;;491        1, 0, 0, 0, 0, 0, 0, 0, 0, 0, 0, 0, 0, 0, 0, 0, 0, 0, 0, 0, 0, 0, 0, 0, 0, 0,
;;;492        0, 0, 0, 0, 0, 0, 0, 0, 0, 0, 0, 0, 0, 0, 0, 0, 0, 1, 0, 0, 0, 0, 0, 0, 1, 0,
;;;493        0, 0, 0, 0, 0, 1 };
;;;494    
;;;495      static const signed char d_b[72] = { 1, 0, 0, 0, 0, 0, 0, 0, 0, 0, 0, 0, 0, 1,
;;;496        0, 0, 0, 0, 0, 0, 0, 0, 0, 0, 0, 0, 1, 0, 0, 0, 0, 0, 0, 0, 0, 0, 0, 0, 0, 0,
;;;497        0, 0, 0, 0, 0, 1, 0, 0, 0, 0, 0, 0, 0, 0, 0, 0, 0, 0, 1, 0, 0, 0, 0, 0, 0, 0,
;;;498        0, 0, 0, 0, 0, 1 };
;;;499    
;;;500      float b_z[6];
;;;501    
;;;502      /* LQG Postion Estimator and Controller */
;;;503      /*  Observer: */
;;;504      /*         x[n|n]   = x[n|n-1] + M(y[n] - Cx[n|n-1] - Du[n]) */
;;;505      /*         x[n+1|n] = Ax[n|n] + Bu[n] */
;;;506      /*  */
;;;507      /*  $Author: Tobias Naegeli $    $Date: 2014 $    $Revision: 3 $ */
;;;508      /*  */
;;;509      /*  */
;;;510      /*  Arguments: */
;;;511      /*  approx_prediction: if 1 then the exponential map is approximated with a */
;;;512      /*  first order taylor approximation. has at the moment not a big influence */
;;;513      /*  (just 1st or 2nd order approximation) we should change it to rodriquez */
;;;514      /*  approximation. */
;;;515      /*  use_inertia_matrix: set to true if you have the inertia matrix J for your */
;;;516      /*  quadrotor */
;;;517      /*  xa_apo_k: old state vectotr */
;;;518      /*  zFlag: if sensor measurement is available [gyro, acc, mag] */
;;;519      /*  dt: dt in s */
;;;520      /*  z: measurements [gyro, acc, mag] */
;;;521      /*  q_rotSpeed: process noise gyro */
;;;522      /*  q_rotAcc: process noise gyro acceleration */
;;;523      /*  q_acc: process noise acceleration */
;;;524      /*  q_mag: process noise magnetometer */
;;;525      /*  r_gyro: measurement noise gyro */
;;;526      /*  r_accel: measurement noise accel */
;;;527      /*  r_mag: measurement noise mag */
;;;528      /*  J: moment of inertia matrix */
;;;529      /*  Output: */
;;;530      /*  xa_apo: updated state vectotr */
;;;531      /*  Pa_apo: updated state covariance matrix */
;;;532      /*  Rot_matrix: rotation matrix */
;;;533      /*  eulerAngles: euler angles */
;;;534      /*  debugOutput: not used */
;;;535      /* % model specific parameters */
;;;536      /*  compute once the inverse of the Inertia */
;;;537      /* 'AttitudeEKF:48' if isempty(Ji) */
;;;538      if (!Ji_not_empty) {
000006  48fe              LDR      r0,|L1.1024|
000008  7800              LDRB     r0,[r0,#0]  ; Ji_not_empty
00000a  b938              CBNZ     r0,|L1.28|
;;;539        /* 'AttitudeEKF:49' Ji=single(inv(J)); */
;;;540        inv(J, Ji);
00000c  49fd              LDR      r1,|L1.1028|
00000e  f8dd0b40          LDR      r0,[sp,#0xb40]
000012  f7fffffe          BL       inv
;;;541        Ji_not_empty = TRUE;
000016  2001              MOVS     r0,#1
000018  49f9              LDR      r1,|L1.1024|
00001a  7008              STRB     r0,[r1,#0]
                  |L1.28|
;;;542      }
;;;543    
;;;544      /* % init */
;;;545      /* 'AttitudeEKF:54' if(isempty(x_apo)) */
;;;546      /* 'AttitudeEKF:64' if(isempty(P_apo)) */
;;;547      /* 'AttitudeEKF:69' debugOutput = single(zeros(4,1)); */
;;;548      for (i = 0; i < 4; i++) {
00001c  2000              MOVS     r0,#0
00001e  f8cd0b08          STR      r0,[sp,#0xb08]
000022  e00b              B        |L1.60|
                  |L1.36|
;;;549        debugOutput[i] = 0.0F;
000024  2200              MOVS     r2,#0
000026  f8dd1b54          LDR      r1,[sp,#0xb54]
00002a  f8dd0b08          LDR      r0,[sp,#0xb08]
00002e  f8412020          STR      r2,[r1,r0,LSL #2]
000032  f8dd0b08          LDR      r0,[sp,#0xb08]        ;548
000036  1c40              ADDS     r0,r0,#1              ;548
000038  f8cd0b08          STR      r0,[sp,#0xb08]        ;548
                  |L1.60|
00003c  f8dd0b08          LDR      r0,[sp,#0xb08]        ;548
000040  2804              CMP      r0,#4                 ;548
000042  dbef              BLT      |L1.36|
;;;550      }
;;;551    
;;;552      /* % copy the states */
;;;553      /* 'AttitudeEKF:72' wx=  x_apo(1); */
;;;554      /*  x  body angular rate */
;;;555      /* 'AttitudeEKF:73' wy=  x_apo(2); */
;;;556      /*  y  body angular rate */
;;;557      /* 'AttitudeEKF:74' wz=  x_apo(3); */
;;;558      /*  z  body angular rate */
;;;559      /* 'AttitudeEKF:76' wax=  x_apo(4); */
;;;560      /*  x  body angular acceleration */
;;;561      /* 'AttitudeEKF:77' way=  x_apo(5); */
;;;562      /*  y  body angular acceleration */
;;;563      /* 'AttitudeEKF:78' waz=  x_apo(6); */
;;;564      /*  z  body angular acceleration */
;;;565      /* 'AttitudeEKF:80' zex=  x_apo(7); */
;;;566      /*  x  component gravity vector */
;;;567      /* 'AttitudeEKF:81' zey=  x_apo(8); */
;;;568      /*  y  component gravity vector */
;;;569      /* 'AttitudeEKF:82' zez=  x_apo(9); */
;;;570      /*  z  component gravity vector */
;;;571      /* 'AttitudeEKF:84' mux=  x_apo(10); */
;;;572      /*  x  component magnetic field vector */
;;;573      /* 'AttitudeEKF:85' muy=  x_apo(11); */
;;;574      /*  y  component magnetic field vector */
;;;575      /* 'AttitudeEKF:86' muz=  x_apo(12); */
;;;576      /*  z  component magnetic field vector */
;;;577      /* % prediction section */
;;;578      /*  compute the apriori state estimate from the previous aposteriori estimate */
;;;579      /* body angular accelerations */
;;;580      /* 'AttitudeEKF:94' if (use_inertia_matrix==1) */
;;;581      if (use_inertia_matrix == 1) {
000044  f8dd0b10          LDR      r0,[sp,#0xb10]
000048  2801              CMP      r0,#1
00004a  d17d              BNE      |L1.328|
;;;582        /* 'AttitudeEKF:95' wak =[wax;way;waz]+Ji*(-cross([wax;way;waz],J*[wax;way;waz]))*dt; */
;;;583        fv0[0] = x_apo[3];
00004c  48ee              LDR      r0,|L1.1032|
00004e  68c1              LDR      r1,[r0,#0xc]  ; x_apo
000050  f8cd1afc          STR      r1,[sp,#0xafc]
;;;584        fv0[1] = x_apo[4];
000054  6901              LDR      r1,[r0,#0x10]  ; x_apo
000056  f8cd1b00          STR      r1,[sp,#0xb00]
;;;585        fv0[2] = x_apo[5];
00005a  6941              LDR      r1,[r0,#0x14]  ; x_apo
00005c  f8cd1b04          STR      r1,[sp,#0xb04]
;;;586        for (r2 = 0; r2 < 3; r2++) {
000060  2000              MOVS     r0,#0
000062  f8cd0af8          STR      r0,[sp,#0xaf8]
000066  e03f              B        |L1.232|
                  |L1.104|
;;;587          zek[r2] = 0.0F;
000068  2100              MOVS     r1,#0
00006a  f60d22ec          ADD      r2,sp,#0xaec
00006e  f8dd0af8          LDR      r0,[sp,#0xaf8]
000072  f8421020          STR      r1,[r2,r0,LSL #2]
;;;588          for (i = 0; i < 3; i++) {
000076  f8cd1b08          STR      r1,[sp,#0xb08]
00007a  e02c              B        |L1.214|
                  |L1.124|
;;;589            zek[r2] += J[r2 + 3 * i] * fv0[i];
00007c  f60d21fc          ADD      r1,sp,#0xafc
000080  f8dd0b08          LDR      r0,[sp,#0xb08]
000084  f8511020          LDR      r1,[r1,r0,LSL #2]
000088  9106              STR      r1,[sp,#0x18]
00008a  2203              MOVS     r2,#3
00008c  f8dd1af8          LDR      r1,[sp,#0xaf8]
000090  fb021100          MLA      r1,r2,r0,r1
000094  f8dd0b40          LDR      r0,[sp,#0xb40]
000098  f8501021          LDR      r1,[r0,r1,LSL #2]
00009c  9105              STR      r1,[sp,#0x14]
00009e  e9dd0105          LDRD     r0,r1,[sp,#0x14]
0000a2  f7fffffe          BL       __aeabi_fmul
0000a6  f60d22ec          ADD      r2,sp,#0xaec
0000aa  9007              STR      r0,[sp,#0x1c]
0000ac  f8dd0af8          LDR      r0,[sp,#0xaf8]
0000b0  f8520020          LDR      r0,[r2,r0,LSL #2]
0000b4  4601              MOV      r1,r0
0000b6  9006              STR      r0,[sp,#0x18]
0000b8  9807              LDR      r0,[sp,#0x1c]
0000ba  f7fffffe          BL       __aeabi_fadd
0000be  4601              MOV      r1,r0
0000c0  f60d22ec          ADD      r2,sp,#0xaec
0000c4  f8dd0af8          LDR      r0,[sp,#0xaf8]
0000c8  f8421020          STR      r1,[r2,r0,LSL #2]
0000cc  f8dd0b08          LDR      r0,[sp,#0xb08]        ;588
0000d0  1c40              ADDS     r0,r0,#1              ;588
0000d2  f8cd0b08          STR      r0,[sp,#0xb08]        ;588
                  |L1.214|
0000d6  f8dd0b08          LDR      r0,[sp,#0xb08]        ;588
0000da  2803              CMP      r0,#3                 ;588
0000dc  dbce              BLT      |L1.124|
0000de  f8dd0af8          LDR      r0,[sp,#0xaf8]        ;586
0000e2  1c40              ADDS     r0,r0,#1              ;586
0000e4  f8cd0af8          STR      r0,[sp,#0xaf8]        ;586
                  |L1.232|
0000e8  f8dd0af8          LDR      r0,[sp,#0xaf8]        ;586
0000ec  2803              CMP      r0,#3                 ;586
0000ee  dbbb              BLT      |L1.104|
;;;590          }
;;;591        }
;;;592    
;;;593        muk[0] = x_apo[3];
0000f0  48c5              LDR      r0,|L1.1032|
0000f2  68c1              LDR      r1,[r0,#0xc]  ; x_apo
0000f4  f8cd1ae0          STR      r1,[sp,#0xae0]
;;;594        muk[1] = x_apo[4];
0000f8  6901              LDR      r1,[r0,#0x10]  ; x_apo
0000fa  f8cd1ae4          STR      r1,[sp,#0xae4]
;;;595        muk[2] = x_apo[5];
0000fe  6941              LDR      r1,[r0,#0x14]  ; x_apo
000100  f8cd1ae8          STR      r1,[sp,#0xae8]
;;;596        b_muk[0] = x_apo[4] * zek[2] - x_apo[5] * zek[1];
000104  f8dd1af0          LDR      r1,[sp,#0xaf0]
000108  9105              STR      r1,[sp,#0x14]
00010a  6941              LDR      r1,[r0,#0x14]  ; x_apo
00010c  9104              STR      r1,[sp,#0x10]
00010e  e9dd0104          LDRD     r0,r1,[sp,#0x10]
000112  f7fffffe          BL       __aeabi_fmul
000116  9007              STR      r0,[sp,#0x1c]
000118  f8dd0af4          LDR      r0,[sp,#0xaf4]
00011c  9005              STR      r0,[sp,#0x14]
00011e  48ba              LDR      r0,|L1.1032|
000120  6900              LDR      r0,[r0,#0x10]  ; x_apo
000122  9004              STR      r0,[sp,#0x10]
000124  9905              LDR      r1,[sp,#0x14]
000126  f7fffffe          BL       __aeabi_fmul
00012a  9006              STR      r0,[sp,#0x18]
00012c  9907              LDR      r1,[sp,#0x1c]
00012e  f7fffffe          BL       __aeabi_fsub
000132  f8cd0ad4          STR      r0,[sp,#0xad4]
;;;597        b_muk[1] = x_apo[5] * zek[0] - x_apo[3] * zek[2];
000136  f8dd1af4          LDR      r1,[sp,#0xaf4]
00013a  48b3              LDR      r0,|L1.1032|
00013c  9105              STR      r1,[sp,#0x14]
00013e  68c1              LDR      r1,[r0,#0xc]  ; x_apo
000140  9104              STR      r1,[sp,#0x10]
000142  e9dd0104          LDRD     r0,r1,[sp,#0x10]
000146  e000              B        |L1.330|
                  |L1.328|
000148  e0b6              B        |L1.696|
                  |L1.330|
00014a  f7fffffe          BL       __aeabi_fmul
00014e  9007              STR      r0,[sp,#0x1c]
000150  f8dd0aec          LDR      r0,[sp,#0xaec]
000154  9005              STR      r0,[sp,#0x14]
000156  48ac              LDR      r0,|L1.1032|
000158  6940              LDR      r0,[r0,#0x14]  ; x_apo
00015a  9004              STR      r0,[sp,#0x10]
00015c  9905              LDR      r1,[sp,#0x14]
00015e  f7fffffe          BL       __aeabi_fmul
000162  9006              STR      r0,[sp,#0x18]
000164  9907              LDR      r1,[sp,#0x1c]
000166  f7fffffe          BL       __aeabi_fsub
00016a  f8cd0ad8          STR      r0,[sp,#0xad8]
;;;598        b_muk[2] = x_apo[3] * zek[1] - x_apo[4] * zek[0];
00016e  f8dd1aec          LDR      r1,[sp,#0xaec]
000172  48a5              LDR      r0,|L1.1032|
000174  9105              STR      r1,[sp,#0x14]
000176  6901              LDR      r1,[r0,#0x10]  ; x_apo
000178  9104              STR      r1,[sp,#0x10]
00017a  e9dd0104          LDRD     r0,r1,[sp,#0x10]
00017e  f7fffffe          BL       __aeabi_fmul
000182  9007              STR      r0,[sp,#0x1c]
000184  f8dd0af0          LDR      r0,[sp,#0xaf0]
000188  9005              STR      r0,[sp,#0x14]
00018a  489f              LDR      r0,|L1.1032|
00018c  68c0              LDR      r0,[r0,#0xc]  ; x_apo
00018e  9004              STR      r0,[sp,#0x10]
000190  9905              LDR      r1,[sp,#0x14]
000192  f7fffffe          BL       __aeabi_fmul
000196  9006              STR      r0,[sp,#0x18]
000198  9907              LDR      r1,[sp,#0x1c]
00019a  f7fffffe          BL       __aeabi_fsub
00019e  f8cd0adc          STR      r0,[sp,#0xadc]
;;;599        for (r2 = 0; r2 < 3; r2++) {
0001a2  2100              MOVS     r1,#0
0001a4  f8cd1af8          STR      r1,[sp,#0xaf8]
0001a8  e012              B        |L1.464|
                  |L1.426|
;;;600          c_muk[r2] = -b_muk[r2];
0001aa  f60d21d4          ADD      r1,sp,#0xad4
0001ae  f8dd0af8          LDR      r0,[sp,#0xaf8]
0001b2  f8510020          LDR      r0,[r1,r0,LSL #2]
0001b6  f0804100          EOR      r1,r0,#0x80000000
0001ba  f60d22c8          ADD      r2,sp,#0xac8
0001be  f8dd0af8          LDR      r0,[sp,#0xaf8]
0001c2  f8421020          STR      r1,[r2,r0,LSL #2]
0001c6  f8dd0af8          LDR      r0,[sp,#0xaf8]        ;599
0001ca  1c40              ADDS     r0,r0,#1              ;599
0001cc  f8cd0af8          STR      r0,[sp,#0xaf8]        ;599
                  |L1.464|
0001d0  f8dd0af8          LDR      r0,[sp,#0xaf8]        ;599
0001d4  2803              CMP      r0,#3                 ;599
0001d6  dbe8              BLT      |L1.426|
;;;601        }
;;;602    
;;;603        fv1[0] = x_apo[3];
0001d8  488b              LDR      r0,|L1.1032|
0001da  68c1              LDR      r1,[r0,#0xc]  ; x_apo
0001dc  f8cd1abc          STR      r1,[sp,#0xabc]
;;;604        fv1[1] = x_apo[4];
0001e0  6901              LDR      r1,[r0,#0x10]  ; x_apo
0001e2  f8cd1ac0          STR      r1,[sp,#0xac0]
;;;605        fv1[2] = x_apo[5];
0001e6  6941              LDR      r1,[r0,#0x14]  ; x_apo
0001e8  f8cd1ac4          STR      r1,[sp,#0xac4]
;;;606        for (r2 = 0; r2 < 3; r2++) {
0001ec  2100              MOVS     r1,#0
0001ee  f8cd1af8          STR      r1,[sp,#0xaf8]
0001f2  e05c              B        |L1.686|
                  |L1.500|
;;;607          fv0[r2] = 0.0F;
0001f4  2100              MOVS     r1,#0
0001f6  f60d22fc          ADD      r2,sp,#0xafc
0001fa  f8dd0af8          LDR      r0,[sp,#0xaf8]
0001fe  f8421020          STR      r1,[r2,r0,LSL #2]
;;;608          for (i = 0; i < 3; i++) {
000202  f8cd1b08          STR      r1,[sp,#0xb08]
000206  e02b              B        |L1.608|
                  |L1.520|
;;;609            fv0[r2] += Ji[r2 + 3 * i] * c_muk[i];
000208  f60d21c8          ADD      r1,sp,#0xac8
00020c  f8dd0b08          LDR      r0,[sp,#0xb08]
000210  f8511020          LDR      r1,[r1,r0,LSL #2]
000214  9106              STR      r1,[sp,#0x18]
000216  2203              MOVS     r2,#3
000218  f8dd1af8          LDR      r1,[sp,#0xaf8]
00021c  fb021000          MLA      r0,r2,r0,r1
000220  4978              LDR      r1,|L1.1028|
000222  f8511020          LDR      r1,[r1,r0,LSL #2]
000226  9105              STR      r1,[sp,#0x14]
000228  e9dd0105          LDRD     r0,r1,[sp,#0x14]
00022c  f7fffffe          BL       __aeabi_fmul
000230  f60d22fc          ADD      r2,sp,#0xafc
000234  9007              STR      r0,[sp,#0x1c]
000236  f8dd0af8          LDR      r0,[sp,#0xaf8]
00023a  f8520020          LDR      r0,[r2,r0,LSL #2]
00023e  4601              MOV      r1,r0
000240  9006              STR      r0,[sp,#0x18]
000242  9807              LDR      r0,[sp,#0x1c]
000244  f7fffffe          BL       __aeabi_fadd
000248  4601              MOV      r1,r0
00024a  f60d22fc          ADD      r2,sp,#0xafc
00024e  f8dd0af8          LDR      r0,[sp,#0xaf8]
000252  f8421020          STR      r1,[r2,r0,LSL #2]
000256  f8dd0b08          LDR      r0,[sp,#0xb08]        ;608
00025a  1c40              ADDS     r0,r0,#1              ;608
00025c  f8cd0b08          STR      r0,[sp,#0xb08]        ;608
                  |L1.608|
000260  f8dd0b08          LDR      r0,[sp,#0xb08]        ;608
000264  2803              CMP      r0,#3                 ;608
000266  dbcf              BLT      |L1.520|
;;;610          }
;;;611    
;;;612          wak[r2] = fv1[r2] + fv0[r2] * dt;
000268  f60d21fc          ADD      r1,sp,#0xafc
00026c  f8dd0af8          LDR      r0,[sp,#0xaf8]
000270  f8511020          LDR      r1,[r1,r0,LSL #2]
000274  9106              STR      r1,[sp,#0x18]
000276  f8dd1b18          LDR      r1,[sp,#0xb18]
00027a  9806              LDR      r0,[sp,#0x18]
00027c  f7fffffe          BL       __aeabi_fmul
000280  f60d21bc          ADD      r1,sp,#0xabc
000284  9007              STR      r0,[sp,#0x1c]
000286  f8dd0af8          LDR      r0,[sp,#0xaf8]
00028a  f8511020          LDR      r1,[r1,r0,LSL #2]
00028e  9106              STR      r1,[sp,#0x18]
000290  9807              LDR      r0,[sp,#0x1c]
000292  f7fffffe          BL       __aeabi_fadd
000296  4601              MOV      r1,r0
000298  f50d622b          ADD      r2,sp,#0xab0
00029c  f8dd0af8          LDR      r0,[sp,#0xaf8]
0002a0  f8421020          STR      r1,[r2,r0,LSL #2]
0002a4  f8dd0af8          LDR      r0,[sp,#0xaf8]        ;606
0002a8  1c40              ADDS     r0,r0,#1              ;606
0002aa  f8cd0af8          STR      r0,[sp,#0xaf8]        ;606
                  |L1.686|
0002ae  f8dd0af8          LDR      r0,[sp,#0xaf8]        ;606
0002b2  2803              CMP      r0,#3                 ;606
0002b4  db9e              BLT      |L1.500|
0002b6  e009              B        |L1.716|
                  |L1.696|
;;;613        }
;;;614      } else {
;;;615        /* 'AttitudeEKF:96' else */
;;;616        /* 'AttitudeEKF:97' wak =[wax;way;waz]; */
;;;617        wak[0] = x_apo[3];
0002b8  4853              LDR      r0,|L1.1032|
0002ba  68c1              LDR      r1,[r0,#0xc]  ; x_apo
0002bc  f8cd1ab0          STR      r1,[sp,#0xab0]
;;;618        wak[1] = x_apo[4];
0002c0  6901              LDR      r1,[r0,#0x10]  ; x_apo
0002c2  f8cd1ab4          STR      r1,[sp,#0xab4]
;;;619        wak[2] = x_apo[5];
0002c6  6941              LDR      r1,[r0,#0x14]  ; x_apo
0002c8  f8cd1ab8          STR      r1,[sp,#0xab8]
                  |L1.716|
;;;620      }
;;;621    
;;;622      /* body angular rates */
;;;623      /* 'AttitudeEKF:101' wk =[wx;  wy; wz] + dt*wak; */
;;;624      /* derivative of the prediction rotation matrix */
;;;625      /* 'AttitudeEKF:104' O=[0,-wz,wy;wz,0,-wx;-wy,wx,0]'; */
;;;626      O[0] = 0.0F;
0002cc  2100              MOVS     r1,#0
0002ce  f8cd1a8c          STR      r1,[sp,#0xa8c]
;;;627      O[1] = -x_apo[2];
0002d2  484d              LDR      r0,|L1.1032|
0002d4  6880              LDR      r0,[r0,#8]  ; x_apo
0002d6  f0804100          EOR      r1,r0,#0x80000000
0002da  f8cd1a90          STR      r1,[sp,#0xa90]
;;;628      O[2] = x_apo[1];
0002de  484a              LDR      r0,|L1.1032|
0002e0  6841              LDR      r1,[r0,#4]  ; x_apo
0002e2  f8cd1a94          STR      r1,[sp,#0xa94]
;;;629      O[3] = x_apo[2];
0002e6  6881              LDR      r1,[r0,#8]  ; x_apo
0002e8  f8cd1a98          STR      r1,[sp,#0xa98]
;;;630      O[4] = 0.0F;
0002ec  2100              MOVS     r1,#0
0002ee  f8cd1a9c          STR      r1,[sp,#0xa9c]
;;;631      O[5] = -x_apo[0];
0002f2  6800              LDR      r0,[r0,#0]  ; x_apo
0002f4  f0804100          EOR      r1,r0,#0x80000000
0002f8  f8cd1aa0          STR      r1,[sp,#0xaa0]
;;;632      O[6] = -x_apo[1];
0002fc  4842              LDR      r0,|L1.1032|
0002fe  6840              LDR      r0,[r0,#4]  ; x_apo
000300  f0804100          EOR      r1,r0,#0x80000000
000304  f8cd1aa4          STR      r1,[sp,#0xaa4]
;;;633      O[7] = x_apo[0];
000308  483f              LDR      r0,|L1.1032|
00030a  6801              LDR      r1,[r0,#0]  ; x_apo
00030c  f8cd1aa8          STR      r1,[sp,#0xaa8]
;;;634      O[8] = 0.0F;
000310  2100              MOVS     r1,#0
000312  f8cd1aac          STR      r1,[sp,#0xaac]
;;;635    
;;;636      /* prediction of the earth z vector */
;;;637      /* 'AttitudeEKF:107' if (approx_prediction==1) */
;;;638      if (approx_prediction == 1) {
000316  f8dd0b0c          LDR      r0,[sp,#0xb0c]
00031a  2801              CMP      r0,#1
00031c  d178              BNE      |L1.1040|
;;;639        /* e^(Odt)=I+dt*O+dt^2/2!O^2 */
;;;640        /*  so we do a first order approximation of the exponential map */
;;;641        /* 'AttitudeEKF:110' zek =(O*dt+single(eye(3)))*[zex;zey;zez]; */
;;;642        for (r2 = 0; r2 < 3; r2++) {
00031e  2000              MOVS     r0,#0
000320  f8cd0af8          STR      r0,[sp,#0xaf8]
000324  e03f              B        |L1.934|
                  |L1.806|
;;;643          for (i = 0; i < 3; i++) {
000326  2000              MOVS     r0,#0
000328  f8cd0b08          STR      r0,[sp,#0xb08]
00032c  e032              B        |L1.916|
                  |L1.814|
;;;644            b_O[i + 3 * r2] = O[i + 3 * r2] * dt + (float)iv0[i + 3 * r2];
00032e  2203              MOVS     r2,#3
000330  f8dd1b08          LDR      r1,[sp,#0xb08]
000334  f8dd0af8          LDR      r0,[sp,#0xaf8]
000338  fb021000          MLA      r0,r2,r0,r1
00033c  4933              LDR      r1,|L1.1036|
00033e  5609              LDRSB    r1,[r1,r0]
000340  4608              MOV      r0,r1
000342  9105              STR      r1,[sp,#0x14]
000344  f7fffffe          BL       __aeabi_i2f
000348  9007              STR      r0,[sp,#0x1c]
00034a  2203              MOVS     r2,#3
00034c  f8dd1af8          LDR      r1,[sp,#0xaf8]
000350  f8dd0b08          LDR      r0,[sp,#0xb08]
000354  fb020001          MLA      r0,r2,r1,r0
000358  f60d218c          ADD      r1,sp,#0xa8c
00035c  f8510020          LDR      r0,[r1,r0,LSL #2]
000360  9005              STR      r0,[sp,#0x14]
000362  f8dd1b18          LDR      r1,[sp,#0xb18]
000366  f7fffffe          BL       __aeabi_fmul
00036a  9006              STR      r0,[sp,#0x18]
00036c  9907              LDR      r1,[sp,#0x1c]
00036e  f7fffffe          BL       __aeabi_fadd
000372  4601              MOV      r1,r0
000374  2303              MOVS     r3,#3
000376  f8dd2b08          LDR      r2,[sp,#0xb08]
00037a  f8dd0af8          LDR      r0,[sp,#0xaf8]
00037e  fb032000          MLA      r0,r3,r0,r2
000382  f60d2268          ADD      r2,sp,#0xa68
000386  f8421020          STR      r1,[r2,r0,LSL #2]
00038a  f8dd0b08          LDR      r0,[sp,#0xb08]        ;643
00038e  1c40              ADDS     r0,r0,#1              ;643
000390  f8cd0b08          STR      r0,[sp,#0xb08]        ;643
                  |L1.916|
000394  f8dd0b08          LDR      r0,[sp,#0xb08]        ;643
000398  2803              CMP      r0,#3                 ;643
00039a  dbc8              BLT      |L1.814|
00039c  f8dd0af8          LDR      r0,[sp,#0xaf8]        ;642
0003a0  1c40              ADDS     r0,r0,#1              ;642
0003a2  f8cd0af8          STR      r0,[sp,#0xaf8]        ;642
                  |L1.934|
0003a6  f8dd0af8          LDR      r0,[sp,#0xaf8]        ;642
0003aa  2803              CMP      r0,#3                 ;642
0003ac  dbbb              BLT      |L1.806|
;;;645          }
;;;646        }
;;;647    
;;;648        fv2[0] = x_apo[6];
0003ae  4816              LDR      r0,|L1.1032|
0003b0  6981              LDR      r1,[r0,#0x18]  ; x_apo
0003b2  f8cd1a5c          STR      r1,[sp,#0xa5c]
;;;649        fv2[1] = x_apo[7];
0003b6  69c1              LDR      r1,[r0,#0x1c]  ; x_apo
0003b8  f8cd1a60          STR      r1,[sp,#0xa60]
;;;650        fv2[2] = x_apo[8];
0003bc  6a01              LDR      r1,[r0,#0x20]  ; x_apo
0003be  f8cd1a64          STR      r1,[sp,#0xa64]
;;;651        for (r2 = 0; r2 < 3; r2++) {
0003c2  2100              MOVS     r1,#0
0003c4  f8cd1af8          STR      r1,[sp,#0xaf8]
0003c8  e049              B        |L1.1118|
                  |L1.970|
;;;652          zek[r2] = 0.0F;
0003ca  2100              MOVS     r1,#0
0003cc  f60d22ec          ADD      r2,sp,#0xaec
0003d0  f8dd0af8          LDR      r0,[sp,#0xaf8]
0003d4  f8421020          STR      r1,[r2,r0,LSL #2]
;;;653          for (i = 0; i < 3; i++) {
0003d8  f8cd1b08          STR      r1,[sp,#0xb08]
0003dc  e036              B        |L1.1100|
                  |L1.990|
;;;654            zek[r2] += b_O[r2 + 3 * i] * fv2[i];
0003de  f60d215c          ADD      r1,sp,#0xa5c
0003e2  f8dd0b08          LDR      r0,[sp,#0xb08]
0003e6  f8511020          LDR      r1,[r1,r0,LSL #2]
0003ea  9106              STR      r1,[sp,#0x18]
0003ec  2203              MOVS     r2,#3
0003ee  f8dd1af8          LDR      r1,[sp,#0xaf8]
0003f2  fb021000          MLA      r0,r2,r0,r1
0003f6  f60d2168          ADD      r1,sp,#0xa68
0003fa  f8511020          LDR      r1,[r1,r0,LSL #2]
0003fe  e008              B        |L1.1042|
                  |L1.1024|
                          DCD      Ji_not_empty
                  |L1.1028|
                          DCD      ||Ji||
                  |L1.1032|
                          DCD      x_apo
                  |L1.1036|
                          DCD      iv0
                  |L1.1040|
000410  e02a              B        |L1.1128|
                  |L1.1042|
000412  9105              STR      r1,[sp,#0x14]
000414  e9dd0105          LDRD     r0,r1,[sp,#0x14]
000418  f7fffffe          BL       __aeabi_fmul
00041c  f60d22ec          ADD      r2,sp,#0xaec
000420  9007              STR      r0,[sp,#0x1c]
000422  f8dd0af8          LDR      r0,[sp,#0xaf8]
000426  f8520020          LDR      r0,[r2,r0,LSL #2]
00042a  4601              MOV      r1,r0
00042c  9006              STR      r0,[sp,#0x18]
00042e  9807              LDR      r0,[sp,#0x1c]
000430  f7fffffe          BL       __aeabi_fadd
000434  4601              MOV      r1,r0
000436  f60d22ec          ADD      r2,sp,#0xaec
00043a  f8dd0af8          LDR      r0,[sp,#0xaf8]
00043e  f8421020          STR      r1,[r2,r0,LSL #2]
000442  f8dd0b08          LDR      r0,[sp,#0xb08]        ;653
000446  1c40              ADDS     r0,r0,#1              ;653
000448  f8cd0b08          STR      r0,[sp,#0xb08]        ;653
                  |L1.1100|
00044c  f8dd0b08          LDR      r0,[sp,#0xb08]        ;653
000450  2803              CMP      r0,#3                 ;653
000452  dbc4              BLT      |L1.990|
000454  f8dd0af8          LDR      r0,[sp,#0xaf8]        ;651
000458  1c40              ADDS     r0,r0,#1              ;651
00045a  f8cd0af8          STR      r0,[sp,#0xaf8]        ;651
                  |L1.1118|
00045e  f8dd0af8          LDR      r0,[sp,#0xaf8]        ;651
000462  2803              CMP      r0,#3                 ;651
000464  dbb1              BLT      |L1.970|
000466  e124              B        |L1.1714|
                  |L1.1128|
;;;655          }
;;;656        }
;;;657      } else {
;;;658        /* 'AttitudeEKF:112' else */
;;;659        /* 'AttitudeEKF:113' zek =(single(eye(3))+O*dt+dt^2/2*O^2)*[zex;zey;zez]; */
;;;660        maxval = dt * dt / 2.0F;
000468  f8dd1b18          LDR      r1,[sp,#0xb18]
00046c  4608              MOV      r0,r1
00046e  f7fffffe          BL       __aeabi_fmul
000472  f04f4180          MOV      r1,#0x40000000
000476  9007              STR      r0,[sp,#0x1c]
000478  f7fffffe          BL       __aeabi_fdiv
00047c  f8cd0a58          STR      r0,[sp,#0xa58]
;;;661        for (r2 = 0; r2 < 3; r2++) {
000480  2000              MOVS     r0,#0
000482  f8cd0af8          STR      r0,[sp,#0xaf8]
000486  e062              B        |L1.1358|
                  |L1.1160|
;;;662          for (i = 0; i < 3; i++) {
000488  2000              MOVS     r0,#0
00048a  f8cd0b08          STR      r0,[sp,#0xb08]
00048e  e055              B        |L1.1340|
                  |L1.1168|
;;;663            b_O[r2 + 3 * i] = 0.0F;
000490  2200              MOVS     r2,#0
000492  2303              MOVS     r3,#3
000494  f8dd1af8          LDR      r1,[sp,#0xaf8]
000498  f8dd0b08          LDR      r0,[sp,#0xb08]
00049c  fb031000          MLA      r0,r3,r0,r1
0004a0  f60d2168          ADD      r1,sp,#0xa68
0004a4  f8412020          STR      r2,[r1,r0,LSL #2]
;;;664            for (r1 = 0; r1 < 3; r1++) {
0004a8  2100              MOVS     r1,#0
0004aa  f8cd1a54          STR      r1,[sp,#0xa54]
0004ae  e03c              B        |L1.1322|
                  |L1.1200|
;;;665              b_O[r2 + 3 * i] += O[r2 + 3 * r1] * O[r1 + 3 * i];
0004b0  2203              MOVS     r2,#3
0004b2  f8dd1a54          LDR      r1,[sp,#0xa54]
0004b6  f8dd0b08          LDR      r0,[sp,#0xb08]
0004ba  fb021000          MLA      r0,r2,r0,r1
0004be  f60d218c          ADD      r1,sp,#0xa8c
0004c2  f8511020          LDR      r1,[r1,r0,LSL #2]
0004c6  9106              STR      r1,[sp,#0x18]
0004c8  f8dd1af8          LDR      r1,[sp,#0xaf8]
0004cc  f8dd0a54          LDR      r0,[sp,#0xa54]
0004d0  fb021000          MLA      r0,r2,r0,r1
0004d4  f60d218c          ADD      r1,sp,#0xa8c
0004d8  f8511020          LDR      r1,[r1,r0,LSL #2]
0004dc  9105              STR      r1,[sp,#0x14]
0004de  e9dd0105          LDRD     r0,r1,[sp,#0x14]
0004e2  f7fffffe          BL       __aeabi_fmul
0004e6  9007              STR      r0,[sp,#0x1c]
0004e8  2203              MOVS     r2,#3
0004ea  f8dd1b08          LDR      r1,[sp,#0xb08]
0004ee  f8dd0af8          LDR      r0,[sp,#0xaf8]
0004f2  fb020001          MLA      r0,r2,r1,r0
0004f6  f60d2168          ADD      r1,sp,#0xa68
0004fa  f8510020          LDR      r0,[r1,r0,LSL #2]
0004fe  4601              MOV      r1,r0
000500  9006              STR      r0,[sp,#0x18]
000502  9807              LDR      r0,[sp,#0x1c]
000504  f7fffffe          BL       __aeabi_fadd
000508  4601              MOV      r1,r0
00050a  2303              MOVS     r3,#3
00050c  f8dd2af8          LDR      r2,[sp,#0xaf8]
000510  f8dd0b08          LDR      r0,[sp,#0xb08]
000514  fb032000          MLA      r0,r3,r0,r2
000518  f60d2268          ADD      r2,sp,#0xa68
00051c  f8421020          STR      r1,[r2,r0,LSL #2]
000520  f8dd0a54          LDR      r0,[sp,#0xa54]        ;664
000524  1c40              ADDS     r0,r0,#1              ;664
000526  f8cd0a54          STR      r0,[sp,#0xa54]        ;664
                  |L1.1322|
00052a  f8dd0a54          LDR      r0,[sp,#0xa54]        ;664
00052e  2803              CMP      r0,#3                 ;664
000530  dbbe              BLT      |L1.1200|
000532  f8dd0b08          LDR      r0,[sp,#0xb08]        ;662
000536  1c40              ADDS     r0,r0,#1              ;662
000538  f8cd0b08          STR      r0,[sp,#0xb08]        ;662
                  |L1.1340|
00053c  f8dd0b08          LDR      r0,[sp,#0xb08]        ;662
000540  2803              CMP      r0,#3                 ;662
000542  dba5              BLT      |L1.1168|
000544  f8dd0af8          LDR      r0,[sp,#0xaf8]        ;661
000548  1c40              ADDS     r0,r0,#1              ;661
00054a  f8cd0af8          STR      r0,[sp,#0xaf8]        ;661
                  |L1.1358|
00054e  f8dd0af8          LDR      r0,[sp,#0xaf8]        ;661
000552  2803              CMP      r0,#3                 ;661
000554  db98              BLT      |L1.1160|
;;;666            }
;;;667          }
;;;668        }
;;;669    
;;;670        for (r2 = 0; r2 < 3; r2++) {
000556  2000              MOVS     r0,#0
000558  f8cd0af8          STR      r0,[sp,#0xaf8]
00055c  e053              B        |L1.1542|
                  |L1.1374|
;;;671          for (i = 0; i < 3; i++) {
00055e  2000              MOVS     r0,#0
000560  f8cd0b08          STR      r0,[sp,#0xb08]
000564  e046              B        |L1.1524|
                  |L1.1382|
;;;672            fv3[i + 3 * r2] = ((float)iv0[i + 3 * r2] + O[i + 3 * r2] * dt) + maxval
000566  2203              MOVS     r2,#3
000568  f8dd1b08          LDR      r1,[sp,#0xb08]
00056c  f8dd0af8          LDR      r0,[sp,#0xaf8]
000570  fb021000          MLA      r0,r2,r0,r1
000574  f60d2168          ADD      r1,sp,#0xa68
000578  f8511020          LDR      r1,[r1,r0,LSL #2]
00057c  9105              STR      r1,[sp,#0x14]
00057e  f8dd0a58          LDR      r0,[sp,#0xa58]
000582  f7fffffe          BL       __aeabi_fmul
000586  9007              STR      r0,[sp,#0x1c]
000588  2203              MOVS     r2,#3
00058a  f8dd1af8          LDR      r1,[sp,#0xaf8]
00058e  f8dd0b08          LDR      r0,[sp,#0xb08]
000592  fb020001          MLA      r0,r2,r1,r0
000596  f60d218c          ADD      r1,sp,#0xa8c
00059a  f8510020          LDR      r0,[r1,r0,LSL #2]
00059e  9003              STR      r0,[sp,#0xc]
0005a0  f8dd1b18          LDR      r1,[sp,#0xb18]
0005a4  f7fffffe          BL       __aeabi_fmul
0005a8  9005              STR      r0,[sp,#0x14]
0005aa  2203              MOVS     r2,#3
0005ac  f8dd1af8          LDR      r1,[sp,#0xaf8]
0005b0  f8dd0b08          LDR      r0,[sp,#0xb08]
0005b4  fb020001          MLA      r0,r2,r1,r0
0005b8  49fe              LDR      r1,|L1.2484|
0005ba  5608              LDRSB    r0,[r1,r0]
0005bc  9003              STR      r0,[sp,#0xc]
0005be  f7fffffe          BL       __aeabi_i2f
0005c2  9004              STR      r0,[sp,#0x10]
0005c4  9905              LDR      r1,[sp,#0x14]
0005c6  f7fffffe          BL       __aeabi_fadd
0005ca  9006              STR      r0,[sp,#0x18]
0005cc  9907              LDR      r1,[sp,#0x1c]
0005ce  f7fffffe          BL       __aeabi_fadd
0005d2  4601              MOV      r1,r0
0005d4  2303              MOVS     r3,#3
0005d6  f8dd2b08          LDR      r2,[sp,#0xb08]
0005da  f8dd0af8          LDR      r0,[sp,#0xaf8]
0005de  fb032000          MLA      r0,r3,r0,r2
0005e2  f50d6223          ADD      r2,sp,#0xa30
0005e6  f8421020          STR      r1,[r2,r0,LSL #2]
0005ea  f8dd0b08          LDR      r0,[sp,#0xb08]        ;671
0005ee  1c40              ADDS     r0,r0,#1              ;671
0005f0  f8cd0b08          STR      r0,[sp,#0xb08]        ;671
                  |L1.1524|
0005f4  f8dd0b08          LDR      r0,[sp,#0xb08]        ;671
0005f8  2803              CMP      r0,#3                 ;671
0005fa  dbb4              BLT      |L1.1382|
0005fc  f8dd0af8          LDR      r0,[sp,#0xaf8]        ;670
000600  1c40              ADDS     r0,r0,#1              ;670
000602  f8cd0af8          STR      r0,[sp,#0xaf8]        ;670
                  |L1.1542|
000606  f8dd0af8          LDR      r0,[sp,#0xaf8]        ;670
00060a  2803              CMP      r0,#3                 ;670
00060c  dba7              BLT      |L1.1374|
;;;673              * b_O[i + 3 * r2];
;;;674          }
;;;675        }
;;;676    
;;;677        fv2[0] = x_apo[6];
00060e  48ea              LDR      r0,|L1.2488|
000610  6981              LDR      r1,[r0,#0x18]  ; x_apo
000612  f8cd1a5c          STR      r1,[sp,#0xa5c]
;;;678        fv2[1] = x_apo[7];
000616  69c1              LDR      r1,[r0,#0x1c]  ; x_apo
000618  f8cd1a60          STR      r1,[sp,#0xa60]
;;;679        fv2[2] = x_apo[8];
00061c  6a01              LDR      r1,[r0,#0x20]  ; x_apo
00061e  f8cd1a64          STR      r1,[sp,#0xa64]
;;;680        for (r2 = 0; r2 < 3; r2++) {
000622  2100              MOVS     r1,#0
000624  f8cd1af8          STR      r1,[sp,#0xaf8]
000628  e03f              B        |L1.1706|
                  |L1.1578|
;;;681          zek[r2] = 0.0F;
00062a  2100              MOVS     r1,#0
00062c  f60d22ec          ADD      r2,sp,#0xaec
000630  f8dd0af8          LDR      r0,[sp,#0xaf8]
000634  f8421020          STR      r1,[r2,r0,LSL #2]
;;;682          for (i = 0; i < 3; i++) {
000638  f8cd1b08          STR      r1,[sp,#0xb08]
00063c  e02c              B        |L1.1688|
                  |L1.1598|
;;;683            zek[r2] += fv3[r2 + 3 * i] * fv2[i];
00063e  f60d215c          ADD      r1,sp,#0xa5c
000642  f8dd0b08          LDR      r0,[sp,#0xb08]
000646  f8511020          LDR      r1,[r1,r0,LSL #2]
00064a  9106              STR      r1,[sp,#0x18]
00064c  2203              MOVS     r2,#3
00064e  f8dd1af8          LDR      r1,[sp,#0xaf8]
000652  fb021000          MLA      r0,r2,r0,r1
000656  f50d6123          ADD      r1,sp,#0xa30
00065a  f8511020          LDR      r1,[r1,r0,LSL #2]
00065e  9105              STR      r1,[sp,#0x14]
000660  e9dd0105          LDRD     r0,r1,[sp,#0x14]
000664  f7fffffe          BL       __aeabi_fmul
000668  f60d22ec          ADD      r2,sp,#0xaec
00066c  9007              STR      r0,[sp,#0x1c]
00066e  f8dd0af8          LDR      r0,[sp,#0xaf8]
000672  f8520020          LDR      r0,[r2,r0,LSL #2]
000676  4601              MOV      r1,r0
000678  9006              STR      r0,[sp,#0x18]
00067a  9807              LDR      r0,[sp,#0x1c]
00067c  f7fffffe          BL       __aeabi_fadd
000680  4601              MOV      r1,r0
000682  f60d22ec          ADD      r2,sp,#0xaec
000686  f8dd0af8          LDR      r0,[sp,#0xaf8]
00068a  f8421020          STR      r1,[r2,r0,LSL #2]
00068e  f8dd0b08          LDR      r0,[sp,#0xb08]        ;682
000692  1c40              ADDS     r0,r0,#1              ;682
000694  f8cd0b08          STR      r0,[sp,#0xb08]        ;682
                  |L1.1688|
000698  f8dd0b08          LDR      r0,[sp,#0xb08]        ;682
00069c  2803              CMP      r0,#3                 ;682
00069e  dbce              BLT      |L1.1598|
0006a0  f8dd0af8          LDR      r0,[sp,#0xaf8]        ;680
0006a4  1c40              ADDS     r0,r0,#1              ;680
0006a6  f8cd0af8          STR      r0,[sp,#0xaf8]        ;680
                  |L1.1706|
0006aa  f8dd0af8          LDR      r0,[sp,#0xaf8]        ;680
0006ae  2803              CMP      r0,#3                 ;680
0006b0  dbbb              BLT      |L1.1578|
                  |L1.1714|
;;;684          }
;;;685        }
;;;686    
;;;687        /* zek =expm2(O*dt)*[zex;zey;zez]; not working because use double */
;;;688        /* precision */
;;;689      }
;;;690    
;;;691      /* prediction of the magnetic vector */
;;;692      /* 'AttitudeEKF:121' if (approx_prediction==1) */
;;;693      if (approx_prediction == 1) {
0006b2  f8dd0b0c          LDR      r0,[sp,#0xb0c]
0006b6  2801              CMP      r0,#1
0006b8  d17e              BNE      |L1.1976|
;;;694        /* e^(Odt)=I+dt*O+dt^2/2!O^2 */
;;;695        /*  so we do a first order approximation of the exponential map */
;;;696        /* 'AttitudeEKF:124' muk =(O*dt+single(eye(3)))*[mux;muy;muz]; */
;;;697        for (r2 = 0; r2 < 3; r2++) {
0006ba  2000              MOVS     r0,#0
0006bc  f8cd0af8          STR      r0,[sp,#0xaf8]
0006c0  e03f              B        |L1.1858|
                  |L1.1730|
;;;698          for (i = 0; i < 3; i++) {
0006c2  2000              MOVS     r0,#0
0006c4  f8cd0b08          STR      r0,[sp,#0xb08]
0006c8  e032              B        |L1.1840|
                  |L1.1738|
;;;699            b_O[i + 3 * r2] = O[i + 3 * r2] * dt + (float)iv0[i + 3 * r2];
0006ca  2203              MOVS     r2,#3
0006cc  f8dd1b08          LDR      r1,[sp,#0xb08]
0006d0  f8dd0af8          LDR      r0,[sp,#0xaf8]
0006d4  fb021000          MLA      r0,r2,r0,r1
0006d8  49b6              LDR      r1,|L1.2484|
0006da  5609              LDRSB    r1,[r1,r0]
0006dc  4608              MOV      r0,r1
0006de  9105              STR      r1,[sp,#0x14]
0006e0  f7fffffe          BL       __aeabi_i2f
0006e4  9007              STR      r0,[sp,#0x1c]
0006e6  2203              MOVS     r2,#3
0006e8  f8dd1af8          LDR      r1,[sp,#0xaf8]
0006ec  f8dd0b08          LDR      r0,[sp,#0xb08]
0006f0  fb020001          MLA      r0,r2,r1,r0
0006f4  f60d218c          ADD      r1,sp,#0xa8c
0006f8  f8510020          LDR      r0,[r1,r0,LSL #2]
0006fc  9005              STR      r0,[sp,#0x14]
0006fe  f8dd1b18          LDR      r1,[sp,#0xb18]
000702  f7fffffe          BL       __aeabi_fmul
000706  9006              STR      r0,[sp,#0x18]
000708  9907              LDR      r1,[sp,#0x1c]
00070a  f7fffffe          BL       __aeabi_fadd
00070e  4601              MOV      r1,r0
000710  2303              MOVS     r3,#3
000712  f8dd2b08          LDR      r2,[sp,#0xb08]
000716  f8dd0af8          LDR      r0,[sp,#0xaf8]
00071a  fb032000          MLA      r0,r3,r0,r2
00071e  f60d2268          ADD      r2,sp,#0xa68
000722  f8421020          STR      r1,[r2,r0,LSL #2]
000726  f8dd0b08          LDR      r0,[sp,#0xb08]        ;698
00072a  1c40              ADDS     r0,r0,#1              ;698
00072c  f8cd0b08          STR      r0,[sp,#0xb08]        ;698
                  |L1.1840|
000730  f8dd0b08          LDR      r0,[sp,#0xb08]        ;698
000734  2803              CMP      r0,#3                 ;698
000736  dbc8              BLT      |L1.1738|
000738  f8dd0af8          LDR      r0,[sp,#0xaf8]        ;697
00073c  1c40              ADDS     r0,r0,#1              ;697
00073e  f8cd0af8          STR      r0,[sp,#0xaf8]        ;697
                  |L1.1858|
000742  f8dd0af8          LDR      r0,[sp,#0xaf8]        ;697
000746  2803              CMP      r0,#3                 ;697
000748  dbbb              BLT      |L1.1730|
;;;700          }
;;;701        }
;;;702    
;;;703        fv4[0] = x_apo[9];
00074a  489b              LDR      r0,|L1.2488|
00074c  6a41              LDR      r1,[r0,#0x24]  ; x_apo
00074e  f8cd1a24          STR      r1,[sp,#0xa24]
;;;704        fv4[1] = x_apo[10];
000752  6a81              LDR      r1,[r0,#0x28]  ; x_apo
000754  f8cd1a28          STR      r1,[sp,#0xa28]
;;;705        fv4[2] = x_apo[11];
000758  6ac1              LDR      r1,[r0,#0x2c]  ; x_apo
00075a  f8cd1a2c          STR      r1,[sp,#0xa2c]
;;;706        for (r2 = 0; r2 < 3; r2++) {
00075e  2100              MOVS     r1,#0
000760  f8cd1af8          STR      r1,[sp,#0xaf8]
000764  e041              B        |L1.2026|
                  |L1.1894|
;;;707          muk[r2] = 0.0F;
000766  2100              MOVS     r1,#0
000768  f50d622e          ADD      r2,sp,#0xae0
00076c  f8dd0af8          LDR      r0,[sp,#0xaf8]
000770  f8421020          STR      r1,[r2,r0,LSL #2]
;;;708          for (i = 0; i < 3; i++) {
000774  f8cd1b08          STR      r1,[sp,#0xb08]
000778  e02e              B        |L1.2008|
                  |L1.1914|
;;;709            muk[r2] += b_O[r2 + 3 * i] * fv4[i];
00077a  f60d2124          ADD      r1,sp,#0xa24
00077e  f8dd0b08          LDR      r0,[sp,#0xb08]
000782  f8511020          LDR      r1,[r1,r0,LSL #2]
000786  9106              STR      r1,[sp,#0x18]
000788  2203              MOVS     r2,#3
00078a  f8dd1af8          LDR      r1,[sp,#0xaf8]
00078e  fb021000          MLA      r0,r2,r0,r1
000792  f60d2168          ADD      r1,sp,#0xa68
000796  f8511020          LDR      r1,[r1,r0,LSL #2]
00079a  9105              STR      r1,[sp,#0x14]
00079c  e9dd0105          LDRD     r0,r1,[sp,#0x14]
0007a0  f7fffffe          BL       __aeabi_fmul
0007a4  f50d622e          ADD      r2,sp,#0xae0
0007a8  9007              STR      r0,[sp,#0x1c]
0007aa  f8dd0af8          LDR      r0,[sp,#0xaf8]
0007ae  f8520020          LDR      r0,[r2,r0,LSL #2]
0007b2  4601              MOV      r1,r0
0007b4  9006              STR      r0,[sp,#0x18]
0007b6  e000              B        |L1.1978|
                  |L1.1976|
0007b8  e01c              B        |L1.2036|
                  |L1.1978|
0007ba  9807              LDR      r0,[sp,#0x1c]
0007bc  f7fffffe          BL       __aeabi_fadd
0007c0  4601              MOV      r1,r0
0007c2  f50d622e          ADD      r2,sp,#0xae0
0007c6  f8dd0af8          LDR      r0,[sp,#0xaf8]
0007ca  f8421020          STR      r1,[r2,r0,LSL #2]
0007ce  f8dd0b08          LDR      r0,[sp,#0xb08]        ;708
0007d2  1c40              ADDS     r0,r0,#1              ;708
0007d4  f8cd0b08          STR      r0,[sp,#0xb08]        ;708
                  |L1.2008|
0007d8  f8dd0b08          LDR      r0,[sp,#0xb08]        ;708
0007dc  2803              CMP      r0,#3                 ;708
0007de  dbcc              BLT      |L1.1914|
0007e0  f8dd0af8          LDR      r0,[sp,#0xaf8]        ;706
0007e4  1c40              ADDS     r0,r0,#1              ;706
0007e6  f8cd0af8          STR      r0,[sp,#0xaf8]        ;706
                  |L1.2026|
0007ea  f8dd0af8          LDR      r0,[sp,#0xaf8]        ;706
0007ee  2803              CMP      r0,#3                 ;706
0007f0  dbb9              BLT      |L1.1894|
0007f2  e127              B        |L1.2628|
                  |L1.2036|
;;;710          }
;;;711        }
;;;712      } else {
;;;713        /* 'AttitudeEKF:125' else */
;;;714        /* 'AttitudeEKF:126' muk =(single(eye(3))+O*dt+dt^2/2*O^2)*[mux;muy;muz]; */
;;;715        maxval = dt * dt / 2.0F;
0007f4  f8dd1b18          LDR      r1,[sp,#0xb18]
0007f8  4608              MOV      r0,r1
0007fa  f7fffffe          BL       __aeabi_fmul
0007fe  f04f4180          MOV      r1,#0x40000000
000802  9007              STR      r0,[sp,#0x1c]
000804  f7fffffe          BL       __aeabi_fdiv
000808  f8cd0a58          STR      r0,[sp,#0xa58]
;;;716        for (r2 = 0; r2 < 3; r2++) {
00080c  2100              MOVS     r1,#0
00080e  f8cd1af8          STR      r1,[sp,#0xaf8]
000812  e061              B        |L1.2264|
                  |L1.2068|
;;;717          for (i = 0; i < 3; i++) {
000814  2000              MOVS     r0,#0
000816  f8cd0b08          STR      r0,[sp,#0xb08]
00081a  e054              B        |L1.2246|
                  |L1.2076|
;;;718            b_O[r2 + 3 * i] = 0.0F;
00081c  2200              MOVS     r2,#0
00081e  2303              MOVS     r3,#3
000820  f8dd1af8          LDR      r1,[sp,#0xaf8]
000824  f8dd0b08          LDR      r0,[sp,#0xb08]
000828  fb031000          MLA      r0,r3,r0,r1
00082c  f60d2168          ADD      r1,sp,#0xa68
000830  f8412020          STR      r2,[r1,r0,LSL #2]
;;;719            for (r1 = 0; r1 < 3; r1++) {
000834  2100              MOVS     r1,#0
000836  f8cd1a54          STR      r1,[sp,#0xa54]
00083a  e03b              B        |L1.2228|
                  |L1.2108|
;;;720              b_O[r2 + 3 * i] += O[r2 + 3 * r1] * O[r1 + 3 * i];
00083c  2203              MOVS     r2,#3
00083e  f8dd1a54          LDR      r1,[sp,#0xa54]
000842  f8dd0b08          LDR      r0,[sp,#0xb08]
000846  fb021000          MLA      r0,r2,r0,r1
00084a  f60d218c          ADD      r1,sp,#0xa8c
00084e  f8511020          LDR      r1,[r1,r0,LSL #2]
000852  9106              STR      r1,[sp,#0x18]
000854  f8dd1af8          LDR      r1,[sp,#0xaf8]
000858  f8dd0a54          LDR      r0,[sp,#0xa54]
00085c  fb021000          MLA      r0,r2,r0,r1
000860  f60d218c          ADD      r1,sp,#0xa8c
000864  f8511020          LDR      r1,[r1,r0,LSL #2]
000868  9105              STR      r1,[sp,#0x14]
00086a  e9dd0105          LDRD     r0,r1,[sp,#0x14]
00086e  f7fffffe          BL       __aeabi_fmul
000872  9007              STR      r0,[sp,#0x1c]
000874  2203              MOVS     r2,#3
000876  f8dd1af8          LDR      r1,[sp,#0xaf8]
00087a  f8dd0b08          LDR      r0,[sp,#0xb08]
00087e  fb021000          MLA      r0,r2,r0,r1
000882  f60d2168          ADD      r1,sp,#0xa68
000886  f8511020          LDR      r1,[r1,r0,LSL #2]
00088a  9106              STR      r1,[sp,#0x18]
00088c  9807              LDR      r0,[sp,#0x1c]
00088e  f7fffffe          BL       __aeabi_fadd
000892  4601              MOV      r1,r0
000894  2303              MOVS     r3,#3
000896  f8dd2af8          LDR      r2,[sp,#0xaf8]
00089a  f8dd0b08          LDR      r0,[sp,#0xb08]
00089e  fb032000          MLA      r0,r3,r0,r2
0008a2  f60d2268          ADD      r2,sp,#0xa68
0008a6  f8421020          STR      r1,[r2,r0,LSL #2]
0008aa  f8dd0a54          LDR      r0,[sp,#0xa54]        ;719
0008ae  1c40              ADDS     r0,r0,#1              ;719
0008b0  f8cd0a54          STR      r0,[sp,#0xa54]        ;719
                  |L1.2228|
0008b4  f8dd0a54          LDR      r0,[sp,#0xa54]        ;719
0008b8  2803              CMP      r0,#3                 ;719
0008ba  dbbf              BLT      |L1.2108|
0008bc  f8dd0b08          LDR      r0,[sp,#0xb08]        ;717
0008c0  1c40              ADDS     r0,r0,#1              ;717
0008c2  f8cd0b08          STR      r0,[sp,#0xb08]        ;717
                  |L1.2246|
0008c6  f8dd0b08          LDR      r0,[sp,#0xb08]        ;717
0008ca  2803              CMP      r0,#3                 ;717
0008cc  dba6              BLT      |L1.2076|
0008ce  f8dd0af8          LDR      r0,[sp,#0xaf8]        ;716
0008d2  1c40              ADDS     r0,r0,#1              ;716
0008d4  f8cd0af8          STR      r0,[sp,#0xaf8]        ;716
                  |L1.2264|
0008d8  f8dd0af8          LDR      r0,[sp,#0xaf8]        ;716
0008dc  2803              CMP      r0,#3                 ;716
0008de  db99              BLT      |L1.2068|
;;;721            }
;;;722          }
;;;723        }
;;;724    
;;;725        for (r2 = 0; r2 < 3; r2++) {
0008e0  2000              MOVS     r0,#0
0008e2  f8cd0af8          STR      r0,[sp,#0xaf8]
0008e6  e053              B        |L1.2448|
                  |L1.2280|
;;;726          for (i = 0; i < 3; i++) {
0008e8  2000              MOVS     r0,#0
0008ea  f8cd0b08          STR      r0,[sp,#0xb08]
0008ee  e046              B        |L1.2430|
                  |L1.2288|
;;;727            fv3[i + 3 * r2] = ((float)iv0[i + 3 * r2] + O[i + 3 * r2] * dt) + maxval
0008f0  2203              MOVS     r2,#3
0008f2  f8dd1b08          LDR      r1,[sp,#0xb08]
0008f6  f8dd0af8          LDR      r0,[sp,#0xaf8]
0008fa  fb021000          MLA      r0,r2,r0,r1
0008fe  f60d2168          ADD      r1,sp,#0xa68
000902  f8511020          LDR      r1,[r1,r0,LSL #2]
000906  9105              STR      r1,[sp,#0x14]
000908  f8dd0a58          LDR      r0,[sp,#0xa58]
00090c  f7fffffe          BL       __aeabi_fmul
000910  9007              STR      r0,[sp,#0x1c]
000912  2203              MOVS     r2,#3
000914  f8dd1af8          LDR      r1,[sp,#0xaf8]
000918  f8dd0b08          LDR      r0,[sp,#0xb08]
00091c  fb020001          MLA      r0,r2,r1,r0
000920  f60d218c          ADD      r1,sp,#0xa8c
000924  f8510020          LDR      r0,[r1,r0,LSL #2]
000928  9003              STR      r0,[sp,#0xc]
00092a  f8dd1b18          LDR      r1,[sp,#0xb18]
00092e  f7fffffe          BL       __aeabi_fmul
000932  9005              STR      r0,[sp,#0x14]
000934  2203              MOVS     r2,#3
000936  f8dd1af8          LDR      r1,[sp,#0xaf8]
00093a  f8dd0b08          LDR      r0,[sp,#0xb08]
00093e  fb020001          MLA      r0,r2,r1,r0
000942  491c              LDR      r1,|L1.2484|
000944  5608              LDRSB    r0,[r1,r0]
000946  9003              STR      r0,[sp,#0xc]
000948  f7fffffe          BL       __aeabi_i2f
00094c  9004              STR      r0,[sp,#0x10]
00094e  9905              LDR      r1,[sp,#0x14]
000950  f7fffffe          BL       __aeabi_fadd
000954  9006              STR      r0,[sp,#0x18]
000956  9907              LDR      r1,[sp,#0x1c]
000958  f7fffffe          BL       __aeabi_fadd
00095c  4601              MOV      r1,r0
00095e  2303              MOVS     r3,#3
000960  f8dd2b08          LDR      r2,[sp,#0xb08]
000964  f8dd0af8          LDR      r0,[sp,#0xaf8]
000968  fb032000          MLA      r0,r3,r0,r2
00096c  f50d6223          ADD      r2,sp,#0xa30
000970  f8421020          STR      r1,[r2,r0,LSL #2]
000974  f8dd0b08          LDR      r0,[sp,#0xb08]        ;726
000978  1c40              ADDS     r0,r0,#1              ;726
00097a  f8cd0b08          STR      r0,[sp,#0xb08]        ;726
                  |L1.2430|
00097e  f8dd0b08          LDR      r0,[sp,#0xb08]        ;726
000982  2803              CMP      r0,#3                 ;726
000984  dbb4              BLT      |L1.2288|
000986  f8dd0af8          LDR      r0,[sp,#0xaf8]        ;725
00098a  1c40              ADDS     r0,r0,#1              ;725
00098c  f8cd0af8          STR      r0,[sp,#0xaf8]        ;725
                  |L1.2448|
000990  f8dd0af8          LDR      r0,[sp,#0xaf8]        ;725
000994  2803              CMP      r0,#3                 ;725
000996  dba7              BLT      |L1.2280|
;;;728              * b_O[i + 3 * r2];
;;;729          }
;;;730        }
;;;731    
;;;732        fv4[0] = x_apo[9];
000998  4807              LDR      r0,|L1.2488|
00099a  6a41              LDR      r1,[r0,#0x24]  ; x_apo
00099c  f8cd1a24          STR      r1,[sp,#0xa24]
;;;733        fv4[1] = x_apo[10];
0009a0  6a81              LDR      r1,[r0,#0x28]  ; x_apo
0009a2  f8cd1a28          STR      r1,[sp,#0xa28]
;;;734        fv4[2] = x_apo[11];
0009a6  6ac1              LDR      r1,[r0,#0x2c]  ; x_apo
0009a8  f8cd1a2c          STR      r1,[sp,#0xa2c]
;;;735        for (r2 = 0; r2 < 3; r2++) {
0009ac  2100              MOVS     r1,#0
0009ae  f8cd1af8          STR      r1,[sp,#0xaf8]
0009b2  e043              B        |L1.2620|
                  |L1.2484|
                          DCD      iv0
                  |L1.2488|
                          DCD      x_apo
                  |L1.2492|
;;;736          muk[r2] = 0.0F;
0009bc  2100              MOVS     r1,#0
0009be  f50d622e          ADD      r2,sp,#0xae0
0009c2  f8dd0af8          LDR      r0,[sp,#0xaf8]
0009c6  f8421020          STR      r1,[r2,r0,LSL #2]
;;;737          for (i = 0; i < 3; i++) {
0009ca  f8cd1b08          STR      r1,[sp,#0xb08]
0009ce  e02c              B        |L1.2602|
                  |L1.2512|
;;;738            muk[r2] += fv3[r2 + 3 * i] * fv4[i];
0009d0  f60d2124          ADD      r1,sp,#0xa24
0009d4  f8dd0b08          LDR      r0,[sp,#0xb08]
0009d8  f8511020          LDR      r1,[r1,r0,LSL #2]
0009dc  9106              STR      r1,[sp,#0x18]
0009de  2203              MOVS     r2,#3
0009e0  f8dd1af8          LDR      r1,[sp,#0xaf8]
0009e4  fb021000          MLA      r0,r2,r0,r1
0009e8  f50d6123          ADD      r1,sp,#0xa30
0009ec  f8511020          LDR      r1,[r1,r0,LSL #2]
0009f0  9105              STR      r1,[sp,#0x14]
0009f2  e9dd0105          LDRD     r0,r1,[sp,#0x14]
0009f6  f7fffffe          BL       __aeabi_fmul
0009fa  f50d622e          ADD      r2,sp,#0xae0
0009fe  9007              STR      r0,[sp,#0x1c]
000a00  f8dd0af8          LDR      r0,[sp,#0xaf8]
000a04  f8520020          LDR      r0,[r2,r0,LSL #2]
000a08  4601              MOV      r1,r0
000a0a  9006              STR      r0,[sp,#0x18]
000a0c  9807              LDR      r0,[sp,#0x1c]
000a0e  f7fffffe          BL       __aeabi_fadd
000a12  4601              MOV      r1,r0
000a14  f50d622e          ADD      r2,sp,#0xae0
000a18  f8dd0af8          LDR      r0,[sp,#0xaf8]
000a1c  f8421020          STR      r1,[r2,r0,LSL #2]
000a20  f8dd0b08          LDR      r0,[sp,#0xb08]        ;737
000a24  1c40              ADDS     r0,r0,#1              ;737
000a26  f8cd0b08          STR      r0,[sp,#0xb08]        ;737
                  |L1.2602|
000a2a  f8dd0b08          LDR      r0,[sp,#0xb08]        ;737
000a2e  2803              CMP      r0,#3                 ;737
000a30  dbce              BLT      |L1.2512|
000a32  f8dd0af8          LDR      r0,[sp,#0xaf8]        ;735
000a36  1c40              ADDS     r0,r0,#1              ;735
000a38  f8cd0af8          STR      r0,[sp,#0xaf8]        ;735
                  |L1.2620|
000a3c  f8dd0af8          LDR      r0,[sp,#0xaf8]        ;735
000a40  2803              CMP      r0,#3                 ;735
000a42  dbbb              BLT      |L1.2492|
                  |L1.2628|
;;;739          }
;;;740        }
;;;741    
;;;742        /* muk =expm2(O*dt)*[mux;muy;muz]; not working because use double */
;;;743        /* precision */
;;;744      }
;;;745    
;;;746      /* 'AttitudeEKF:131' x_apr=[wk;wak;zek;muk]; */
;;;747      x_apr[0] = x_apo[0] + dt * wak[0];
000a44  f8dd1ab0          LDR      r1,[sp,#0xab0]
000a48  9106              STR      r1,[sp,#0x18]
000a4a  f8dd0b18          LDR      r0,[sp,#0xb18]
000a4e  f7fffffe          BL       __aeabi_fmul
000a52  9007              STR      r0,[sp,#0x1c]
000a54  48fe              LDR      r0,|L1.3664|
000a56  6800              LDR      r0,[r0,#0]  ; x_apo
000a58  4601              MOV      r1,r0
000a5a  9006              STR      r0,[sp,#0x18]
000a5c  9807              LDR      r0,[sp,#0x1c]
000a5e  f7fffffe          BL       __aeabi_fadd
000a62  f8cd09f4          STR      r0,[sp,#0x9f4]
;;;748      x_apr[1] = x_apo[1] + dt * wak[1];
000a66  f8dd1ab4          LDR      r1,[sp,#0xab4]
000a6a  9106              STR      r1,[sp,#0x18]
000a6c  f8dd0b18          LDR      r0,[sp,#0xb18]
000a70  f7fffffe          BL       __aeabi_fmul
000a74  9007              STR      r0,[sp,#0x1c]
000a76  48f6              LDR      r0,|L1.3664|
000a78  6840              LDR      r0,[r0,#4]  ; x_apo
000a7a  4601              MOV      r1,r0
000a7c  9006              STR      r0,[sp,#0x18]
000a7e  9807              LDR      r0,[sp,#0x1c]
000a80  f7fffffe          BL       __aeabi_fadd
000a84  f8cd09f8          STR      r0,[sp,#0x9f8]
;;;749      x_apr[2] = x_apo[2] + dt * wak[2];
000a88  f8dd1ab8          LDR      r1,[sp,#0xab8]
000a8c  9106              STR      r1,[sp,#0x18]
000a8e  f8dd0b18          LDR      r0,[sp,#0xb18]
000a92  f7fffffe          BL       __aeabi_fmul
000a96  9007              STR      r0,[sp,#0x1c]
000a98  48ed              LDR      r0,|L1.3664|
000a9a  6880              LDR      r0,[r0,#8]  ; x_apo
000a9c  4601              MOV      r1,r0
000a9e  9006              STR      r0,[sp,#0x18]
000aa0  9807              LDR      r0,[sp,#0x1c]
000aa2  f7fffffe          BL       __aeabi_fadd
000aa6  f8cd09fc          STR      r0,[sp,#0x9fc]
;;;750      for (i = 0; i < 3; i++) {
000aaa  2100              MOVS     r1,#0
000aac  f8cd1b08          STR      r1,[sp,#0xb08]
000ab0  e00f              B        |L1.2770|
                  |L1.2738|
;;;751        x_apr[i + 3] = wak[i];
000ab2  f50d612b          ADD      r1,sp,#0xab0
000ab6  f8dd0b08          LDR      r0,[sp,#0xb08]
000aba  f8511020          LDR      r1,[r1,r0,LSL #2]
000abe  f60d12f4          ADD      r2,sp,#0x9f4
000ac2  1cc0              ADDS     r0,r0,#3
000ac4  f8421020          STR      r1,[r2,r0,LSL #2]
000ac8  f8dd0b08          LDR      r0,[sp,#0xb08]        ;750
000acc  1c40              ADDS     r0,r0,#1              ;750
000ace  f8cd0b08          STR      r0,[sp,#0xb08]        ;750
                  |L1.2770|
000ad2  f8dd0b08          LDR      r0,[sp,#0xb08]        ;750
000ad6  2803              CMP      r0,#3                 ;750
000ad8  dbeb              BLT      |L1.2738|
;;;752      }
;;;753    
;;;754      for (i = 0; i < 3; i++) {
000ada  2000              MOVS     r0,#0
000adc  f8cd0b08          STR      r0,[sp,#0xb08]
000ae0  e00f              B        |L1.2818|
                  |L1.2786|
;;;755        x_apr[i + 6] = zek[i];
000ae2  f60d21ec          ADD      r1,sp,#0xaec
000ae6  f8dd0b08          LDR      r0,[sp,#0xb08]
000aea  f8511020          LDR      r1,[r1,r0,LSL #2]
000aee  f60d12f4          ADD      r2,sp,#0x9f4
000af2  1d80              ADDS     r0,r0,#6
000af4  f8421020          STR      r1,[r2,r0,LSL #2]
000af8  f8dd0b08          LDR      r0,[sp,#0xb08]        ;754
000afc  1c40              ADDS     r0,r0,#1              ;754
000afe  f8cd0b08          STR      r0,[sp,#0xb08]        ;754
                  |L1.2818|
000b02  f8dd0b08          LDR      r0,[sp,#0xb08]        ;754
000b06  2803              CMP      r0,#3                 ;754
000b08  dbeb              BLT      |L1.2786|
;;;756      }
;;;757    
;;;758      for (i = 0; i < 3; i++) {
000b0a  2000              MOVS     r0,#0
000b0c  f8cd0b08          STR      r0,[sp,#0xb08]
000b10  e00f              B        |L1.2866|
                  |L1.2834|
;;;759        x_apr[i + 9] = muk[i];
000b12  f50d612e          ADD      r1,sp,#0xae0
000b16  f8dd0b08          LDR      r0,[sp,#0xb08]
000b1a  f8511020          LDR      r1,[r1,r0,LSL #2]
000b1e  f60d12f4          ADD      r2,sp,#0x9f4
000b22  3009              ADDS     r0,r0,#9
000b24  f8421020          STR      r1,[r2,r0,LSL #2]
000b28  f8dd0b08          LDR      r0,[sp,#0xb08]        ;758
000b2c  1c40              ADDS     r0,r0,#1              ;758
000b2e  f8cd0b08          STR      r0,[sp,#0xb08]        ;758
                  |L1.2866|
000b32  f8dd0b08          LDR      r0,[sp,#0xb08]        ;758
000b36  2803              CMP      r0,#3                 ;758
000b38  dbeb              BLT      |L1.2834|
;;;760      }
;;;761    
;;;762      /*  compute the apriori error covariance estimate from the previous */
;;;763      /* aposteriori estimate */
;;;764      /* 'AttitudeEKF:136' EZ=[0,zez,-zey; */
;;;765      /* 'AttitudeEKF:137'     -zez,0,zex; */
;;;766      /* 'AttitudeEKF:138'     zey,-zex,0]'; */
;;;767      /* 'AttitudeEKF:139' MA=[0,muz,-muy; */
;;;768      /* 'AttitudeEKF:140'     -muz,0,mux; */
;;;769      /* 'AttitudeEKF:141'     muy,-mux,0]'; */
;;;770      /* 'AttitudeEKF:143' E=single(eye(3)); */
;;;771      /* 'AttitudeEKF:144' Z=single(zeros(3)); */
;;;772      /* 'AttitudeEKF:146' A_lin=[ Z,  E,  Z,  Z */
;;;773      /* 'AttitudeEKF:147'     Z,  Z,  Z,  Z */
;;;774      /* 'AttitudeEKF:148'     EZ, Z,  O,  Z */
;;;775      /* 'AttitudeEKF:149'     MA, Z,  Z,  O]; */
;;;776      /* 'AttitudeEKF:151' A_lin=eye(12)+A_lin*dt; */
;;;777      memset(&I[0], 0, 144U * sizeof(signed char));
000b3a  2190              MOVS     r1,#0x90
000b3c  f60d1064          ADD      r0,sp,#0x964
000b40  f7fffffe          BL       __aeabi_memclr4
;;;778      for (i = 0; i < 12; i++) {
000b44  2000              MOVS     r0,#0
000b46  f8cd0b08          STR      r0,[sp,#0xb08]
000b4a  e04b              B        |L1.3044|
                  |L1.2892|
;;;779        I[i + 12 * i] = 1;
000b4c  2201              MOVS     r2,#1
000b4e  210c              MOVS     r1,#0xc
000b50  f8dd0b08          LDR      r0,[sp,#0xb08]
000b54  fb010000          MLA      r0,r1,r0,r0
000b58  f60d1164          ADD      r1,sp,#0x964
000b5c  540a              STRB     r2,[r1,r0]
;;;780        for (r2 = 0; r2 < 3; r2++) {
000b5e  2000              MOVS     r0,#0
000b60  f8cd0af8          STR      r0,[sp,#0xaf8]
000b64  e01c              B        |L1.2976|
                  |L1.2918|
;;;781          A_lin[r2 + 12 * i] = iv1[r2 + 3 * i];
000b66  2203              MOVS     r2,#3
000b68  f8dd1af8          LDR      r1,[sp,#0xaf8]
000b6c  f8dd0b08          LDR      r0,[sp,#0xb08]
000b70  fb021000          MLA      r0,r2,r0,r1
000b74  49b7              LDR      r1,|L1.3668|
000b76  5609              LDRSB    r1,[r1,r0]
000b78  4608              MOV      r0,r1
000b7a  9107              STR      r1,[sp,#0x1c]
000b7c  f7fffffe          BL       __aeabi_i2f
000b80  4601              MOV      r1,r0
000b82  230c              MOVS     r3,#0xc
000b84  f8dd2af8          LDR      r2,[sp,#0xaf8]
000b88  f8dd0b08          LDR      r0,[sp,#0xb08]
000b8c  fb032000          MLA      r0,r3,r0,r2
000b90  4ab1              LDR      r2,|L1.3672|
000b92  f8421020          STR      r1,[r2,r0,LSL #2]
000b96  f8dd0af8          LDR      r0,[sp,#0xaf8]        ;780
000b9a  1c40              ADDS     r0,r0,#1              ;780
000b9c  f8cd0af8          STR      r0,[sp,#0xaf8]        ;780
                  |L1.2976|
000ba0  f8dd0af8          LDR      r0,[sp,#0xaf8]        ;780
000ba4  2803              CMP      r0,#3                 ;780
000ba6  dbde              BLT      |L1.2918|
;;;782        }
;;;783    
;;;784        for (r2 = 0; r2 < 3; r2++) {
000ba8  2000              MOVS     r0,#0
000baa  f8cd0af8          STR      r0,[sp,#0xaf8]
000bae  e010              B        |L1.3026|
                  |L1.2992|
;;;785          A_lin[(r2 + 12 * i) + 3] = 0.0F;
000bb0  2200              MOVS     r2,#0
000bb2  230c              MOVS     r3,#0xc
000bb4  f8dd1af8          LDR      r1,[sp,#0xaf8]
000bb8  f8dd0b08          LDR      r0,[sp,#0xb08]
000bbc  fb031000          MLA      r0,r3,r0,r1
000bc0  1cc0              ADDS     r0,r0,#3
000bc2  49a5              LDR      r1,|L1.3672|
000bc4  f8412020          STR      r2,[r1,r0,LSL #2]
000bc8  f8dd0af8          LDR      r0,[sp,#0xaf8]        ;784
000bcc  1c40              ADDS     r0,r0,#1              ;784
000bce  f8cd0af8          STR      r0,[sp,#0xaf8]        ;784
                  |L1.3026|
000bd2  f8dd0af8          LDR      r0,[sp,#0xaf8]        ;784
000bd6  2803              CMP      r0,#3                 ;784
000bd8  dbea              BLT      |L1.2992|
000bda  f8dd0b08          LDR      r0,[sp,#0xb08]        ;778
000bde  1c40              ADDS     r0,r0,#1              ;778
000be0  f8cd0b08          STR      r0,[sp,#0xb08]        ;778
                  |L1.3044|
000be4  f8dd0b08          LDR      r0,[sp,#0xb08]        ;778
000be8  280c              CMP      r0,#0xc               ;778
000bea  dbaf              BLT      |L1.2892|
;;;786        }
;;;787      }
;;;788    
;;;789      A_lin[6] = 0.0F;
000bec  2000              MOVS     r0,#0
000bee  499a              LDR      r1,|L1.3672|
000bf0  6188              STR      r0,[r1,#0x18]  ; A_lin
;;;790      A_lin[7] = x_apo[8];
000bf2  4897              LDR      r0,|L1.3664|
000bf4  6a00              LDR      r0,[r0,#0x20]  ; x_apo
000bf6  61c8              STR      r0,[r1,#0x1c]  ; A_lin
;;;791      A_lin[8] = -x_apo[7];
000bf8  4895              LDR      r0,|L1.3664|
000bfa  69c0              LDR      r0,[r0,#0x1c]  ; x_apo
000bfc  f0804000          EOR      r0,r0,#0x80000000
000c00  6208              STR      r0,[r1,#0x20]  ; A_lin
;;;792      A_lin[18] = -x_apo[8];
000c02  4893              LDR      r0,|L1.3664|
000c04  6a00              LDR      r0,[r0,#0x20]  ; x_apo
000c06  f0804000          EOR      r0,r0,#0x80000000
000c0a  6488              STR      r0,[r1,#0x48]  ; A_lin
;;;793      A_lin[19] = 0.0F;
000c0c  2000              MOVS     r0,#0
000c0e  64c8              STR      r0,[r1,#0x4c]  ; A_lin
;;;794      A_lin[20] = x_apo[6];
000c10  488f              LDR      r0,|L1.3664|
000c12  6980              LDR      r0,[r0,#0x18]  ; x_apo
000c14  6508              STR      r0,[r1,#0x50]  ; A_lin
;;;795      A_lin[30] = x_apo[7];
000c16  488e              LDR      r0,|L1.3664|
000c18  69c0              LDR      r0,[r0,#0x1c]  ; x_apo
000c1a  6788              STR      r0,[r1,#0x78]  ; A_lin
;;;796      A_lin[31] = -x_apo[6];
000c1c  488c              LDR      r0,|L1.3664|
000c1e  6980              LDR      r0,[r0,#0x18]  ; x_apo
000c20  f0804000          EOR      r0,r0,#0x80000000
000c24  67c8              STR      r0,[r1,#0x7c]  ; A_lin
;;;797      A_lin[32] = 0.0F;
000c26  2000              MOVS     r0,#0
000c28  f8c10080          STR      r0,[r1,#0x80]  ; A_lin
;;;798      for (r2 = 0; r2 < 3; r2++) {
000c2c  f8cd0af8          STR      r0,[sp,#0xaf8]
000c30  e01e              B        |L1.3184|
                  |L1.3122|
;;;799        for (i = 0; i < 3; i++) {
000c32  2000              MOVS     r0,#0
000c34  f8cd0b08          STR      r0,[sp,#0xb08]
000c38  e011              B        |L1.3166|
                  |L1.3130|
;;;800          A_lin[(i + 12 * (r2 + 3)) + 6] = 0.0F;
000c3a  2200              MOVS     r2,#0
000c3c  f8dd0af8          LDR      r0,[sp,#0xaf8]
000c40  1cc0              ADDS     r0,r0,#3
000c42  230c              MOVS     r3,#0xc
000c44  f8dd1b08          LDR      r1,[sp,#0xb08]
000c48  fb031000          MLA      r0,r3,r0,r1
000c4c  1d80              ADDS     r0,r0,#6
000c4e  4982              LDR      r1,|L1.3672|
000c50  f8412020          STR      r2,[r1,r0,LSL #2]
000c54  f8dd0b08          LDR      r0,[sp,#0xb08]        ;799
000c58  1c40              ADDS     r0,r0,#1              ;799
000c5a  f8cd0b08          STR      r0,[sp,#0xb08]        ;799
                  |L1.3166|
000c5e  f8dd0b08          LDR      r0,[sp,#0xb08]        ;799
000c62  2803              CMP      r0,#3                 ;799
000c64  dbe9              BLT      |L1.3130|
000c66  f8dd0af8          LDR      r0,[sp,#0xaf8]        ;798
000c6a  1c40              ADDS     r0,r0,#1              ;798
000c6c  f8cd0af8          STR      r0,[sp,#0xaf8]        ;798
                  |L1.3184|
000c70  f8dd0af8          LDR      r0,[sp,#0xaf8]        ;798
000c74  2803              CMP      r0,#3                 ;798
000c76  dbdc              BLT      |L1.3122|
;;;801        }
;;;802      }
;;;803    
;;;804      for (r2 = 0; r2 < 3; r2++) {
000c78  2000              MOVS     r0,#0
000c7a  f8cd0af8          STR      r0,[sp,#0xaf8]
000c7e  e028              B        |L1.3282|
                  |L1.3200|
;;;805        for (i = 0; i < 3; i++) {
000c80  2000              MOVS     r0,#0
000c82  f8cd0b08          STR      r0,[sp,#0xb08]
000c86  e01b              B        |L1.3264|
                  |L1.3208|
;;;806          A_lin[(i + 12 * (r2 + 6)) + 6] = O[i + 3 * r2];
000c88  2203              MOVS     r2,#3
000c8a  f8dd1b08          LDR      r1,[sp,#0xb08]
000c8e  f8dd0af8          LDR      r0,[sp,#0xaf8]
000c92  fb021000          MLA      r0,r2,r0,r1
000c96  f60d218c          ADD      r1,sp,#0xa8c
000c9a  f8512020          LDR      r2,[r1,r0,LSL #2]
000c9e  f8dd0af8          LDR      r0,[sp,#0xaf8]
000ca2  1d80              ADDS     r0,r0,#6
000ca4  230c              MOVS     r3,#0xc
000ca6  f8dd1b08          LDR      r1,[sp,#0xb08]
000caa  fb031000          MLA      r0,r3,r0,r1
000cae  1d80              ADDS     r0,r0,#6
000cb0  4969              LDR      r1,|L1.3672|
000cb2  f8412020          STR      r2,[r1,r0,LSL #2]
000cb6  f8dd0b08          LDR      r0,[sp,#0xb08]        ;805
000cba  1c40              ADDS     r0,r0,#1              ;805
000cbc  f8cd0b08          STR      r0,[sp,#0xb08]        ;805
                  |L1.3264|
000cc0  f8dd0b08          LDR      r0,[sp,#0xb08]        ;805
000cc4  2803              CMP      r0,#3                 ;805
000cc6  dbdf              BLT      |L1.3208|
000cc8  f8dd0af8          LDR      r0,[sp,#0xaf8]        ;804
000ccc  1c40              ADDS     r0,r0,#1              ;804
000cce  f8cd0af8          STR      r0,[sp,#0xaf8]        ;804
                  |L1.3282|
000cd2  f8dd0af8          LDR      r0,[sp,#0xaf8]        ;804
000cd6  2803              CMP      r0,#3                 ;804
000cd8  dbd2              BLT      |L1.3200|
;;;807        }
;;;808      }
;;;809    
;;;810      for (r2 = 0; r2 < 3; r2++) {
000cda  2000              MOVS     r0,#0
000cdc  f8cd0af8          STR      r0,[sp,#0xaf8]
000ce0  e01e              B        |L1.3360|
                  |L1.3298|
;;;811        for (i = 0; i < 3; i++) {
000ce2  2000              MOVS     r0,#0
000ce4  f8cd0b08          STR      r0,[sp,#0xb08]
000ce8  e011              B        |L1.3342|
                  |L1.3306|
;;;812          A_lin[(i + 12 * (r2 + 9)) + 6] = 0.0F;
000cea  2200              MOVS     r2,#0
000cec  f8dd0af8          LDR      r0,[sp,#0xaf8]
000cf0  3009              ADDS     r0,r0,#9
000cf2  230c              MOVS     r3,#0xc
000cf4  f8dd1b08          LDR      r1,[sp,#0xb08]
000cf8  fb031000          MLA      r0,r3,r0,r1
000cfc  1d80              ADDS     r0,r0,#6
000cfe  4956              LDR      r1,|L1.3672|
000d00  f8412020          STR      r2,[r1,r0,LSL #2]
000d04  f8dd0b08          LDR      r0,[sp,#0xb08]        ;811
000d08  1c40              ADDS     r0,r0,#1              ;811
000d0a  f8cd0b08          STR      r0,[sp,#0xb08]        ;811
                  |L1.3342|
000d0e  f8dd0b08          LDR      r0,[sp,#0xb08]        ;811
000d12  2803              CMP      r0,#3                 ;811
000d14  dbe9              BLT      |L1.3306|
000d16  f8dd0af8          LDR      r0,[sp,#0xaf8]        ;810
000d1a  1c40              ADDS     r0,r0,#1              ;810
000d1c  f8cd0af8          STR      r0,[sp,#0xaf8]        ;810
                  |L1.3360|
000d20  f8dd0af8          LDR      r0,[sp,#0xaf8]        ;810
000d24  2803              CMP      r0,#3                 ;810
000d26  dbdc              BLT      |L1.3298|
;;;813        }
;;;814      }
;;;815    
;;;816      A_lin[9] = 0.0F;
000d28  2000              MOVS     r0,#0
000d2a  494b              LDR      r1,|L1.3672|
000d2c  6248              STR      r0,[r1,#0x24]  ; A_lin
;;;817      A_lin[10] = x_apo[11];
000d2e  4848              LDR      r0,|L1.3664|
000d30  6ac0              LDR      r0,[r0,#0x2c]  ; x_apo
000d32  6288              STR      r0,[r1,#0x28]  ; A_lin
;;;818      A_lin[11] = -x_apo[10];
000d34  4846              LDR      r0,|L1.3664|
000d36  6a80              LDR      r0,[r0,#0x28]  ; x_apo
000d38  f0804000          EOR      r0,r0,#0x80000000
000d3c  62c8              STR      r0,[r1,#0x2c]  ; A_lin
;;;819      A_lin[21] = -x_apo[11];
000d3e  4844              LDR      r0,|L1.3664|
000d40  6ac0              LDR      r0,[r0,#0x2c]  ; x_apo
000d42  f0804000          EOR      r0,r0,#0x80000000
000d46  6548              STR      r0,[r1,#0x54]  ; A_lin
;;;820      A_lin[22] = 0.0F;
000d48  2000              MOVS     r0,#0
000d4a  6588              STR      r0,[r1,#0x58]  ; A_lin
;;;821      A_lin[23] = x_apo[9];
000d4c  4840              LDR      r0,|L1.3664|
000d4e  6a40              LDR      r0,[r0,#0x24]  ; x_apo
000d50  65c8              STR      r0,[r1,#0x5c]  ; A_lin
;;;822      A_lin[33] = x_apo[10];
000d52  483f              LDR      r0,|L1.3664|
000d54  6a80              LDR      r0,[r0,#0x28]  ; x_apo
000d56  f8c10084          STR      r0,[r1,#0x84]  ; A_lin
;;;823      A_lin[34] = -x_apo[9];
000d5a  483d              LDR      r0,|L1.3664|
000d5c  6a40              LDR      r0,[r0,#0x24]  ; x_apo
000d5e  f0804000          EOR      r0,r0,#0x80000000
000d62  f8c10088          STR      r0,[r1,#0x88]  ; A_lin
;;;824      A_lin[35] = 0.0F;
000d66  2000              MOVS     r0,#0
000d68  f8c1008c          STR      r0,[r1,#0x8c]  ; A_lin
;;;825      for (r2 = 0; r2 < 3; r2++) {
000d6c  f8cd0af8          STR      r0,[sp,#0xaf8]
000d70  e01e              B        |L1.3504|
                  |L1.3442|
;;;826        for (i = 0; i < 3; i++) {
000d72  2000              MOVS     r0,#0
000d74  f8cd0b08          STR      r0,[sp,#0xb08]
000d78  e011              B        |L1.3486|
                  |L1.3450|
;;;827          A_lin[(i + 12 * (r2 + 3)) + 9] = 0.0F;
000d7a  2200              MOVS     r2,#0
000d7c  f8dd0af8          LDR      r0,[sp,#0xaf8]
000d80  1cc0              ADDS     r0,r0,#3
000d82  230c              MOVS     r3,#0xc
000d84  f8dd1b08          LDR      r1,[sp,#0xb08]
000d88  fb031000          MLA      r0,r3,r0,r1
000d8c  3009              ADDS     r0,r0,#9
000d8e  4932              LDR      r1,|L1.3672|
000d90  f8412020          STR      r2,[r1,r0,LSL #2]
000d94  f8dd0b08          LDR      r0,[sp,#0xb08]        ;826
000d98  1c40              ADDS     r0,r0,#1              ;826
000d9a  f8cd0b08          STR      r0,[sp,#0xb08]        ;826
                  |L1.3486|
000d9e  f8dd0b08          LDR      r0,[sp,#0xb08]        ;826
000da2  2803              CMP      r0,#3                 ;826
000da4  dbe9              BLT      |L1.3450|
000da6  f8dd0af8          LDR      r0,[sp,#0xaf8]        ;825
000daa  1c40              ADDS     r0,r0,#1              ;825
000dac  f8cd0af8          STR      r0,[sp,#0xaf8]        ;825
                  |L1.3504|
000db0  f8dd0af8          LDR      r0,[sp,#0xaf8]        ;825
000db4  2803              CMP      r0,#3                 ;825
000db6  dbdc              BLT      |L1.3442|
;;;828        }
;;;829      }
;;;830    
;;;831      for (r2 = 0; r2 < 3; r2++) {
000db8  2000              MOVS     r0,#0
000dba  f8cd0af8          STR      r0,[sp,#0xaf8]
000dbe  e01e              B        |L1.3582|
                  |L1.3520|
;;;832        for (i = 0; i < 3; i++) {
000dc0  2000              MOVS     r0,#0
000dc2  f8cd0b08          STR      r0,[sp,#0xb08]
000dc6  e011              B        |L1.3564|
                  |L1.3528|
;;;833          A_lin[(i + 12 * (r2 + 6)) + 9] = 0.0F;
000dc8  2200              MOVS     r2,#0
000dca  f8dd0af8          LDR      r0,[sp,#0xaf8]
000dce  1d80              ADDS     r0,r0,#6
000dd0  230c              MOVS     r3,#0xc
000dd2  f8dd1b08          LDR      r1,[sp,#0xb08]
000dd6  fb031000          MLA      r0,r3,r0,r1
000dda  3009              ADDS     r0,r0,#9
000ddc  491e              LDR      r1,|L1.3672|
000dde  f8412020          STR      r2,[r1,r0,LSL #2]
000de2  f8dd0b08          LDR      r0,[sp,#0xb08]        ;832
000de6  1c40              ADDS     r0,r0,#1              ;832
000de8  f8cd0b08          STR      r0,[sp,#0xb08]        ;832
                  |L1.3564|
000dec  f8dd0b08          LDR      r0,[sp,#0xb08]        ;832
000df0  2803              CMP      r0,#3                 ;832
000df2  dbe9              BLT      |L1.3528|
000df4  f8dd0af8          LDR      r0,[sp,#0xaf8]        ;831
000df8  1c40              ADDS     r0,r0,#1              ;831
000dfa  f8cd0af8          STR      r0,[sp,#0xaf8]        ;831
                  |L1.3582|
000dfe  f8dd0af8          LDR      r0,[sp,#0xaf8]        ;831
000e02  2803              CMP      r0,#3                 ;831
000e04  dbdc              BLT      |L1.3520|
;;;834        }
;;;835      }
;;;836    
;;;837      for (r2 = 0; r2 < 3; r2++) {
000e06  2000              MOVS     r0,#0
000e08  f8cd0af8          STR      r0,[sp,#0xaf8]
000e0c  e02f              B        |L1.3694|
                  |L1.3598|
;;;838        for (i = 0; i < 3; i++) {
000e0e  2000              MOVS     r0,#0
000e10  f8cd0b08          STR      r0,[sp,#0xb08]
000e14  e01b              B        |L1.3662|
                  |L1.3606|
;;;839          A_lin[(i + 12 * (r2 + 9)) + 9] = O[i + 3 * r2];
000e16  2203              MOVS     r2,#3
000e18  f8dd1b08          LDR      r1,[sp,#0xb08]
000e1c  f8dd0af8          LDR      r0,[sp,#0xaf8]
000e20  fb021000          MLA      r0,r2,r0,r1
000e24  f60d218c          ADD      r1,sp,#0xa8c
000e28  f8512020          LDR      r2,[r1,r0,LSL #2]
000e2c  f8dd0af8          LDR      r0,[sp,#0xaf8]
000e30  3009              ADDS     r0,r0,#9
000e32  230c              MOVS     r3,#0xc
000e34  f8dd1b08          LDR      r1,[sp,#0xb08]
000e38  fb031000          MLA      r0,r3,r0,r1
000e3c  3009              ADDS     r0,r0,#9
000e3e  4906              LDR      r1,|L1.3672|
000e40  f8412020          STR      r2,[r1,r0,LSL #2]
000e44  f8dd0b08          LDR      r0,[sp,#0xb08]        ;838
000e48  1c40              ADDS     r0,r0,#1              ;838
000e4a  f8cd0b08          STR      r0,[sp,#0xb08]        ;838
                  |L1.3662|
000e4e  e005              B        |L1.3676|
                  |L1.3664|
                          DCD      x_apo
                  |L1.3668|
                          DCD      iv1
                  |L1.3672|
                          DCD      A_lin
                  |L1.3676|
000e5c  f8dd0b08          LDR      r0,[sp,#0xb08]        ;838
000e60  2803              CMP      r0,#3                 ;838
000e62  dbd8              BLT      |L1.3606|
000e64  f8dd0af8          LDR      r0,[sp,#0xaf8]        ;837
000e68  1c40              ADDS     r0,r0,#1              ;837
000e6a  f8cd0af8          STR      r0,[sp,#0xaf8]        ;837
                  |L1.3694|
000e6e  f8dd0af8          LDR      r0,[sp,#0xaf8]        ;837
000e72  2803              CMP      r0,#3                 ;837
000e74  dbcb              BLT      |L1.3598|
;;;840        }
;;;841      }
;;;842    
;;;843      for (r2 = 0; r2 < 12; r2++) {
000e76  2000              MOVS     r0,#0
000e78  f8cd0af8          STR      r0,[sp,#0xaf8]
000e7c  e03e              B        |L1.3836|
                  |L1.3710|
;;;844        for (i = 0; i < 12; i++) {
000e7e  2000              MOVS     r0,#0
000e80  f8cd0b08          STR      r0,[sp,#0xb08]
000e84  e031              B        |L1.3818|
                  |L1.3718|
;;;845          b_A_lin[i + 12 * r2] = (float)I[i + 12 * r2] + A_lin[i + 12 * r2] * dt;
000e86  220c              MOVS     r2,#0xc
000e88  f8dd1b08          LDR      r1,[sp,#0xb08]
000e8c  f8dd0af8          LDR      r0,[sp,#0xaf8]
000e90  fb021000          MLA      r0,r2,r0,r1
000e94  49fe              LDR      r1,|L1.4752|
000e96  f8511020          LDR      r1,[r1,r0,LSL #2]
000e9a  9105              STR      r1,[sp,#0x14]
000e9c  f8dd1b18          LDR      r1,[sp,#0xb18]
000ea0  9805              LDR      r0,[sp,#0x14]
000ea2  f7fffffe          BL       __aeabi_fmul
000ea6  9007              STR      r0,[sp,#0x1c]
000ea8  220c              MOVS     r2,#0xc
000eaa  f8dd1af8          LDR      r1,[sp,#0xaf8]
000eae  f8dd0b08          LDR      r0,[sp,#0xb08]
000eb2  fb020001          MLA      r0,r2,r1,r0
000eb6  f60d1164          ADD      r1,sp,#0x964
000eba  5608              LDRSB    r0,[r1,r0]
000ebc  9005              STR      r0,[sp,#0x14]
000ebe  f7fffffe          BL       __aeabi_i2f
000ec2  9006              STR      r0,[sp,#0x18]
000ec4  9907              LDR      r1,[sp,#0x1c]
000ec6  f7fffffe          BL       __aeabi_fadd
000eca  4601              MOV      r1,r0
000ecc  230c              MOVS     r3,#0xc
000ece  f8dd2b08          LDR      r2,[sp,#0xb08]
000ed2  f8dd0af8          LDR      r0,[sp,#0xaf8]
000ed6  fb032000          MLA      r0,r3,r0,r2
000eda  4aee              LDR      r2,|L1.4756|
000edc  f8421020          STR      r1,[r2,r0,LSL #2]
000ee0  f8dd0b08          LDR      r0,[sp,#0xb08]        ;844
000ee4  1c40              ADDS     r0,r0,#1              ;844
000ee6  f8cd0b08          STR      r0,[sp,#0xb08]        ;844
                  |L1.3818|
000eea  f8dd0b08          LDR      r0,[sp,#0xb08]        ;844
000eee  280c              CMP      r0,#0xc               ;844
000ef0  dbc9              BLT      |L1.3718|
000ef2  f8dd0af8          LDR      r0,[sp,#0xaf8]        ;843
000ef6  1c40              ADDS     r0,r0,#1              ;843
000ef8  f8cd0af8          STR      r0,[sp,#0xaf8]        ;843
                  |L1.3836|
000efc  f8dd0af8          LDR      r0,[sp,#0xaf8]        ;843
000f00  280c              CMP      r0,#0xc               ;843
000f02  dbbc              BLT      |L1.3710|
;;;846        }
;;;847      }
;;;848    
;;;849      /* process covariance matrix */
;;;850      /* 'AttitudeEKF:156' if (isempty(Q)) */
;;;851      if (!Q_not_empty) {
000f04  48e4              LDR      r0,|L1.4760|
000f06  7800              LDRB     r0,[r0,#0]  ; Q_not_empty
000f08  bbc0              CBNZ     r0,|L1.3964|
;;;852        /* 'AttitudeEKF:157' Q=diag([ q_rotSpeed,q_rotSpeed,q_rotSpeed,... */
;;;853        /* 'AttitudeEKF:158'         q_rotAcc,q_rotAcc,q_rotAcc,... */
;;;854        /* 'AttitudeEKF:159'         q_acc,q_acc,q_acc,... */
;;;855        /* 'AttitudeEKF:160'         q_mag,q_mag,q_mag]); */
;;;856        v[0] = q_rotSpeed;
000f0a  f8dd1b24          LDR      r1,[sp,#0xb24]
000f0e  f8cd1934          STR      r1,[sp,#0x934]
;;;857        v[1] = q_rotSpeed;
000f12  f8dd1b24          LDR      r1,[sp,#0xb24]
000f16  f8cd1938          STR      r1,[sp,#0x938]
;;;858        v[2] = q_rotSpeed;
000f1a  f8dd1b24          LDR      r1,[sp,#0xb24]
000f1e  f8cd193c          STR      r1,[sp,#0x93c]
;;;859        v[3] = q_rotAcc;
000f22  f8dd1b28          LDR      r1,[sp,#0xb28]
000f26  f8cd1940          STR      r1,[sp,#0x940]
;;;860        v[4] = q_rotAcc;
000f2a  f8dd1b28          LDR      r1,[sp,#0xb28]
000f2e  f8cd1944          STR      r1,[sp,#0x944]
;;;861        v[5] = q_rotAcc;
000f32  f8dd1b28          LDR      r1,[sp,#0xb28]
000f36  f8cd1948          STR      r1,[sp,#0x948]
;;;862        v[6] = q_acc;
000f3a  f8dd1b2c          LDR      r1,[sp,#0xb2c]
000f3e  f8cd194c          STR      r1,[sp,#0x94c]
;;;863        v[7] = q_acc;
000f42  f8dd1b2c          LDR      r1,[sp,#0xb2c]
000f46  f8cd1950          STR      r1,[sp,#0x950]
;;;864        v[8] = q_acc;
000f4a  f8dd1b2c          LDR      r1,[sp,#0xb2c]
000f4e  f8cd1954          STR      r1,[sp,#0x954]
;;;865        v[9] = q_mag;
000f52  f8dd1b30          LDR      r1,[sp,#0xb30]
000f56  f8cd1958          STR      r1,[sp,#0x958]
;;;866        v[10] = q_mag;
000f5a  f8dd1b30          LDR      r1,[sp,#0xb30]
000f5e  f8cd195c          STR      r1,[sp,#0x95c]
;;;867        v[11] = q_mag;
000f62  f8dd1b30          LDR      r1,[sp,#0xb30]
000f66  f8cd1960          STR      r1,[sp,#0x960]
;;;868        memset(&Q[0], 0, 144U * sizeof(float));
000f6a  f44f7110          MOV      r1,#0x240
000f6e  48cb              LDR      r0,|L1.4764|
000f70  f7fffffe          BL       __aeabi_memclr4
;;;869        for (i = 0; i < 12; i++) {
000f74  2100              MOVS     r1,#0
000f76  f8cd1b08          STR      r1,[sp,#0xb08]
000f7a  e011              B        |L1.4000|
                  |L1.3964|
000f7c  e017              B        |L1.4014|
                  |L1.3966|
;;;870          Q[i + 12 * i] = v[i];
000f7e  f60d1234          ADD      r2,sp,#0x934
000f82  f8dd0b08          LDR      r0,[sp,#0xb08]
000f86  f8522020          LDR      r2,[r2,r0,LSL #2]
000f8a  210c              MOVS     r1,#0xc
000f8c  fb010000          MLA      r0,r1,r0,r0
000f90  49c2              LDR      r1,|L1.4764|
000f92  f8412020          STR      r2,[r1,r0,LSL #2]
000f96  f8dd0b08          LDR      r0,[sp,#0xb08]        ;869
000f9a  1c40              ADDS     r0,r0,#1              ;869
000f9c  f8cd0b08          STR      r0,[sp,#0xb08]        ;869
                  |L1.4000|
000fa0  f8dd0b08          LDR      r0,[sp,#0xb08]        ;869
000fa4  280c              CMP      r0,#0xc               ;869
000fa6  dbea              BLT      |L1.3966|
;;;871        }
;;;872    
;;;873        Q_not_empty = TRUE;
000fa8  2001              MOVS     r0,#1
000faa  49bb              LDR      r1,|L1.4760|
000fac  7008              STRB     r0,[r1,#0]
                  |L1.4014|
;;;874      }
;;;875    
;;;876      /* 'AttitudeEKF:163' P_apr=A_lin*P_apo*A_lin'+Q; */
;;;877      for (r2 = 0; r2 < 12; r2++) {
000fae  2000              MOVS     r0,#0
000fb0  f8cd0af8          STR      r0,[sp,#0xaf8]
000fb4  e05c              B        |L1.4208|
                  |L1.4022|
;;;878        for (i = 0; i < 12; i++) {
000fb6  2000              MOVS     r0,#0
000fb8  f8cd0b08          STR      r0,[sp,#0xb08]
000fbc  e04f              B        |L1.4190|
                  |L1.4030|
;;;879          A_lin[r2 + 12 * i] = 0.0F;
000fbe  2200              MOVS     r2,#0
000fc0  230c              MOVS     r3,#0xc
000fc2  f8dd1af8          LDR      r1,[sp,#0xaf8]
000fc6  f8dd0b08          LDR      r0,[sp,#0xb08]
000fca  fb031000          MLA      r0,r3,r0,r1
000fce  49b0              LDR      r1,|L1.4752|
000fd0  f8412020          STR      r2,[r1,r0,LSL #2]
;;;880          for (r1 = 0; r1 < 12; r1++) {
000fd4  2100              MOVS     r1,#0
000fd6  f8cd1a54          STR      r1,[sp,#0xa54]
000fda  e037              B        |L1.4172|
                  |L1.4060|
;;;881            A_lin[r2 + 12 * i] += b_A_lin[r2 + 12 * r1] * P_apo[r1 + 12 * i];
000fdc  220c              MOVS     r2,#0xc
000fde  f8dd1a54          LDR      r1,[sp,#0xa54]
000fe2  f8dd0b08          LDR      r0,[sp,#0xb08]
000fe6  fb021000          MLA      r0,r2,r0,r1
000fea  49ad              LDR      r1,|L1.4768|
000fec  f8511020          LDR      r1,[r1,r0,LSL #2]
000ff0  9106              STR      r1,[sp,#0x18]
000ff2  f8dd1af8          LDR      r1,[sp,#0xaf8]
000ff6  f8dd0a54          LDR      r0,[sp,#0xa54]
000ffa  fb021000          MLA      r0,r2,r0,r1
000ffe  49a5              LDR      r1,|L1.4756|
001000  f8511020          LDR      r1,[r1,r0,LSL #2]
001004  9105              STR      r1,[sp,#0x14]
001006  e9dd0105          LDRD     r0,r1,[sp,#0x14]
00100a  f7fffffe          BL       __aeabi_fmul
00100e  9007              STR      r0,[sp,#0x1c]
001010  220c              MOVS     r2,#0xc
001012  f8dd1af8          LDR      r1,[sp,#0xaf8]
001016  f8dd0b08          LDR      r0,[sp,#0xb08]
00101a  fb021000          MLA      r0,r2,r0,r1
00101e  499c              LDR      r1,|L1.4752|
001020  f8511020          LDR      r1,[r1,r0,LSL #2]
001024  9106              STR      r1,[sp,#0x18]
001026  9807              LDR      r0,[sp,#0x1c]
001028  f7fffffe          BL       __aeabi_fadd
00102c  4601              MOV      r1,r0
00102e  230c              MOVS     r3,#0xc
001030  f8dd2af8          LDR      r2,[sp,#0xaf8]
001034  f8dd0b08          LDR      r0,[sp,#0xb08]
001038  fb032000          MLA      r0,r3,r0,r2
00103c  4a94              LDR      r2,|L1.4752|
00103e  f8421020          STR      r1,[r2,r0,LSL #2]
001042  f8dd0a54          LDR      r0,[sp,#0xa54]        ;880
001046  1c40              ADDS     r0,r0,#1              ;880
001048  f8cd0a54          STR      r0,[sp,#0xa54]        ;880
                  |L1.4172|
00104c  f8dd0a54          LDR      r0,[sp,#0xa54]        ;880
001050  280c              CMP      r0,#0xc               ;880
001052  dbc3              BLT      |L1.4060|
001054  f8dd0b08          LDR      r0,[sp,#0xb08]        ;878
001058  1c40              ADDS     r0,r0,#1              ;878
00105a  f8cd0b08          STR      r0,[sp,#0xb08]        ;878
                  |L1.4190|
00105e  f8dd0b08          LDR      r0,[sp,#0xb08]        ;878
001062  280c              CMP      r0,#0xc               ;878
001064  dbab              BLT      |L1.4030|
001066  f8dd0af8          LDR      r0,[sp,#0xaf8]        ;877
00106a  1c40              ADDS     r0,r0,#1              ;877
00106c  f8cd0af8          STR      r0,[sp,#0xaf8]        ;877
                  |L1.4208|
001070  f8dd0af8          LDR      r0,[sp,#0xaf8]        ;877
001074  280c              CMP      r0,#0xc               ;877
001076  db9e              BLT      |L1.4022|
;;;882          }
;;;883        }
;;;884      }
;;;885    
;;;886      for (r2 = 0; r2 < 12; r2++) {
001078  2000              MOVS     r0,#0
00107a  f8cd0af8          STR      r0,[sp,#0xaf8]
00107e  e05a              B        |L1.4406|
                  |L1.4224|
;;;887        for (i = 0; i < 12; i++) {
001080  2000              MOVS     r0,#0
001082  f8cd0b08          STR      r0,[sp,#0xb08]
001086  e04d              B        |L1.4388|
                  |L1.4232|
;;;888          maxval = 0.0F;
001088  2100              MOVS     r1,#0
00108a  f8cd1a58          STR      r1,[sp,#0xa58]
;;;889          for (r1 = 0; r1 < 12; r1++) {
00108e  f8cd1a54          STR      r1,[sp,#0xa54]
001092  e024              B        |L1.4318|
                  |L1.4244|
;;;890            maxval += A_lin[r2 + 12 * r1] * b_A_lin[i + 12 * r1];
001094  220c              MOVS     r2,#0xc
001096  f8dd1b08          LDR      r1,[sp,#0xb08]
00109a  f8dd0a54          LDR      r0,[sp,#0xa54]
00109e  fb021000          MLA      r0,r2,r0,r1
0010a2  497c              LDR      r1,|L1.4756|
0010a4  f8511020          LDR      r1,[r1,r0,LSL #2]
0010a8  9106              STR      r1,[sp,#0x18]
0010aa  f8dd1af8          LDR      r1,[sp,#0xaf8]
0010ae  f8dd0a54          LDR      r0,[sp,#0xa54]
0010b2  fb021000          MLA      r0,r2,r0,r1
0010b6  4976              LDR      r1,|L1.4752|
0010b8  f8511020          LDR      r1,[r1,r0,LSL #2]
0010bc  9105              STR      r1,[sp,#0x14]
0010be  e9dd0105          LDRD     r0,r1,[sp,#0x14]
0010c2  f7fffffe          BL       __aeabi_fmul
0010c6  9007              STR      r0,[sp,#0x1c]
0010c8  f8dd1a58          LDR      r1,[sp,#0xa58]
0010cc  f7fffffe          BL       __aeabi_fadd
0010d0  f8cd0a58          STR      r0,[sp,#0xa58]
0010d4  f8dd0a54          LDR      r0,[sp,#0xa54]        ;889
0010d8  1c40              ADDS     r0,r0,#1              ;889
0010da  f8cd0a54          STR      r0,[sp,#0xa54]        ;889
                  |L1.4318|
0010de  f8dd0a54          LDR      r0,[sp,#0xa54]        ;889
0010e2  280c              CMP      r0,#0xc               ;889
0010e4  dbd6              BLT      |L1.4244|
;;;891          }
;;;892    
;;;893          P_apr[r2 + 12 * i] = maxval + Q[r2 + 12 * i];
0010e6  220c              MOVS     r2,#0xc
0010e8  f8dd1af8          LDR      r1,[sp,#0xaf8]
0010ec  f8dd0b08          LDR      r0,[sp,#0xb08]
0010f0  fb021000          MLA      r0,r2,r0,r1
0010f4  4969              LDR      r1,|L1.4764|
0010f6  f8511020          LDR      r1,[r1,r0,LSL #2]
0010fa  9107              STR      r1,[sp,#0x1c]
0010fc  f8dd0a58          LDR      r0,[sp,#0xa58]
001100  f7fffffe          BL       __aeabi_fadd
001104  4601              MOV      r1,r0
001106  230c              MOVS     r3,#0xc
001108  f8dd2af8          LDR      r2,[sp,#0xaf8]
00110c  f8dd0b08          LDR      r0,[sp,#0xb08]
001110  fb032000          MLA      r0,r3,r0,r2
001114  4a63              LDR      r2,|L1.4772|
001116  f8421020          STR      r1,[r2,r0,LSL #2]
00111a  f8dd0b08          LDR      r0,[sp,#0xb08]        ;887
00111e  1c40              ADDS     r0,r0,#1              ;887
001120  f8cd0b08          STR      r0,[sp,#0xb08]        ;887
                  |L1.4388|
001124  f8dd0b08          LDR      r0,[sp,#0xb08]        ;887
001128  280c              CMP      r0,#0xc               ;887
00112a  dbad              BLT      |L1.4232|
00112c  f8dd0af8          LDR      r0,[sp,#0xaf8]        ;886
001130  1c40              ADDS     r0,r0,#1              ;886
001132  f8cd0af8          STR      r0,[sp,#0xaf8]        ;886
                  |L1.4406|
001136  f8dd0af8          LDR      r0,[sp,#0xaf8]        ;886
00113a  280c              CMP      r0,#0xc               ;886
00113c  dba0              BLT      |L1.4224|
;;;894        }
;;;895      }
;;;896    
;;;897      /* % update */
;;;898      /* 'AttitudeEKF:167' if zFlag(1)==1&&zFlag(2)==1&&zFlag(3)==1 */
;;;899      if ((zFlag[0] == 1) && (zFlag[1] == 1) && (zFlag[2] == 1)) {
00113e  f8dd0b14          LDR      r0,[sp,#0xb14]
001142  7800              LDRB     r0,[r0,#0]
001144  2801              CMP      r0,#1
                  |L1.4422|
001146  d171              BNE      |L1.4652|
001148  f8dd0b14          LDR      r0,[sp,#0xb14]
00114c  7840              LDRB     r0,[r0,#1]
00114e  2801              CMP      r0,#1
001150  d1f9              BNE      |L1.4422|
001152  f8dd0b14          LDR      r0,[sp,#0xb14]
001156  7880              LDRB     r0,[r0,#2]
001158  2801              CMP      r0,#1
00115a  d1f4              BNE      |L1.4422|
;;;900        /*      R=[r_gyro,0,0,0,0,0,0,0,0; */
;;;901        /*          0,r_gyro,0,0,0,0,0,0,0; */
;;;902        /*          0,0,r_gyro,0,0,0,0,0,0; */
;;;903        /*          0,0,0,r_accel,0,0,0,0,0; */
;;;904        /*          0,0,0,0,r_accel,0,0,0,0; */
;;;905        /*          0,0,0,0,0,r_accel,0,0,0; */
;;;906        /*          0,0,0,0,0,0,r_mag,0,0; */
;;;907        /*          0,0,0,0,0,0,0,r_mag,0; */
;;;908        /*          0,0,0,0,0,0,0,0,r_mag]; */
;;;909        /* 'AttitudeEKF:178' R_v=[r_gyro,r_gyro,r_gyro,r_accel,r_accel,r_accel,r_mag,r_mag,r_mag]; */
;;;910        /* observation matrix */
;;;911        /* [zw;ze;zmk]; */
;;;912        /* 'AttitudeEKF:181' H_k=[  E,     Z,      Z,    Z; */
;;;913        /* 'AttitudeEKF:182'         Z,     Z,      E,    Z; */
;;;914        /* 'AttitudeEKF:183'         Z,     Z,      Z,    E]; */
;;;915        /* 'AttitudeEKF:185' y_k=z(1:9)-H_k*x_apr; */
;;;916        /* S_k=H_k*P_apr*H_k'+R; */
;;;917        /* 'AttitudeEKF:189' S_k=H_k*P_apr*H_k'; */
;;;918        for (r2 = 0; r2 < 9; r2++) {
00115c  2000              MOVS     r0,#0
00115e  f8cd0af8          STR      r0,[sp,#0xaf8]
001162  e0d6              B        |L1.4882|
                  |L1.4452|
;;;919          for (i = 0; i < 12; i++) {
001164  2000              MOVS     r0,#0
001166  f8cd0b08          STR      r0,[sp,#0xb08]
00116a  e057              B        |L1.4636|
                  |L1.4460|
;;;920            a[r2 + 9 * i] = 0.0F;
00116c  2200              MOVS     r2,#0
00116e  2309              MOVS     r3,#9
001170  f8dd1af8          LDR      r1,[sp,#0xaf8]
001174  f8dd0b08          LDR      r0,[sp,#0xb08]
001178  fb031000          MLA      r0,r3,r0,r1
00117c  f20d7184          ADD      r1,sp,#0x784
001180  f8412020          STR      r2,[r1,r0,LSL #2]
;;;921            for (r1 = 0; r1 < 12; r1++) {
001184  2100              MOVS     r1,#0
001186  f8cd1a54          STR      r1,[sp,#0xa54]
00118a  e03e              B        |L1.4618|
                  |L1.4492|
;;;922              a[r2 + 9 * i] += (float)b_a[r2 + 9 * r1] * P_apr[r1 + 12 * i];
00118c  2209              MOVS     r2,#9
00118e  f8dd1af8          LDR      r1,[sp,#0xaf8]
001192  f8dd0a54          LDR      r0,[sp,#0xa54]
001196  fb021000          MLA      r0,r2,r0,r1
00119a  4943              LDR      r1,|L1.4776|
00119c  5609              LDRSB    r1,[r1,r0]
00119e  4608              MOV      r0,r1
0011a0  9105              STR      r1,[sp,#0x14]
0011a2  f7fffffe          BL       __aeabi_i2f
0011a6  9006              STR      r0,[sp,#0x18]
0011a8  220c              MOVS     r2,#0xc
0011aa  f8dd1b08          LDR      r1,[sp,#0xb08]
0011ae  f8dd0a54          LDR      r0,[sp,#0xa54]
0011b2  fb020001          MLA      r0,r2,r1,r0
0011b6  493b              LDR      r1,|L1.4772|
0011b8  f8510020          LDR      r0,[r1,r0,LSL #2]
0011bc  4601              MOV      r1,r0
0011be  9005              STR      r0,[sp,#0x14]
0011c0  9806              LDR      r0,[sp,#0x18]
0011c2  f7fffffe          BL       __aeabi_fmul
0011c6  9007              STR      r0,[sp,#0x1c]
0011c8  2209              MOVS     r2,#9
0011ca  f8dd1b08          LDR      r1,[sp,#0xb08]
0011ce  f8dd0af8          LDR      r0,[sp,#0xaf8]
0011d2  fb020001          MLA      r0,r2,r1,r0
0011d6  f20d7184          ADD      r1,sp,#0x784
0011da  f8510020          LDR      r0,[r1,r0,LSL #2]
0011de  4601              MOV      r1,r0
0011e0  9006              STR      r0,[sp,#0x18]
0011e2  9807              LDR      r0,[sp,#0x1c]
0011e4  f7fffffe          BL       __aeabi_fadd
0011e8  4601              MOV      r1,r0
0011ea  2309              MOVS     r3,#9
0011ec  f8dd2af8          LDR      r2,[sp,#0xaf8]
0011f0  f8dd0b08          LDR      r0,[sp,#0xb08]
0011f4  fb032000          MLA      r0,r3,r0,r2
0011f8  f20d7284          ADD      r2,sp,#0x784
0011fc  f8421020          STR      r1,[r2,r0,LSL #2]
001200  f8dd0a54          LDR      r0,[sp,#0xa54]        ;921
001204  1c40              ADDS     r0,r0,#1              ;921
001206  f8cd0a54          STR      r0,[sp,#0xa54]        ;921
                  |L1.4618|
00120a  f8dd0a54          LDR      r0,[sp,#0xa54]        ;921
00120e  280c              CMP      r0,#0xc               ;921
001210  dbbc              BLT      |L1.4492|
001212  f8dd0b08          LDR      r0,[sp,#0xb08]        ;919
001216  1c40              ADDS     r0,r0,#1              ;919
001218  f8cd0b08          STR      r0,[sp,#0xb08]        ;919
                  |L1.4636|
00121c  f8dd0b08          LDR      r0,[sp,#0xb08]        ;919
001220  280c              CMP      r0,#0xc               ;919
001222  dba3              BLT      |L1.4460|
;;;923            }
;;;924          }
;;;925    
;;;926          for (i = 0; i < 9; i++) {
001224  2000              MOVS     r0,#0
001226  f8cd0b08          STR      r0,[sp,#0xb08]
00122a  e069              B        |L1.4864|
                  |L1.4652|
00122c  e2d5              B        |L1.6106|
                  |L1.4654|
;;;927            S_k[r2 + 9 * i] = 0.0F;
00122e  2200              MOVS     r2,#0
001230  2309              MOVS     r3,#9
001232  f8dd1af8          LDR      r1,[sp,#0xaf8]
001236  f8dd0b08          LDR      r0,[sp,#0xb08]
00123a  fb031000          MLA      r0,r3,r0,r1
00123e  f50d61c8          ADD      r1,sp,#0x640
001242  f8412020          STR      r2,[r1,r0,LSL #2]
;;;928            for (r1 = 0; r1 < 12; r1++) {
001246  2100              MOVS     r1,#0
001248  f8cd1a54          STR      r1,[sp,#0xa54]
00124c  e04f              B        |L1.4846|
                  |L1.4686|
;;;929              S_k[r2 + 9 * i] += a[r2 + 9 * r1] * (float)b[r1 + 12 * i];
00124e  220c              MOVS     r2,#0xc
001250  f8dd1a54          LDR      r1,[sp,#0xa54]
001254  f8dd0b08          LDR      r0,[sp,#0xb08]
001258  fb021000          MLA      r0,r2,r0,r1
00125c  4913              LDR      r1,|L1.4780|
00125e  5609              LDRSB    r1,[r1,r0]
001260  4608              MOV      r0,r1
001262  9105              STR      r1,[sp,#0x14]
001264  f7fffffe          BL       __aeabi_i2f
001268  9006              STR      r0,[sp,#0x18]
00126a  2209              MOVS     r2,#9
00126c  f8dd1a54          LDR      r1,[sp,#0xa54]
001270  f8dd0af8          LDR      r0,[sp,#0xaf8]
001274  fb020001          MLA      r0,r2,r1,r0
001278  f20d7184          ADD      r1,sp,#0x784
00127c  f8510020          LDR      r0,[r1,r0,LSL #2]
001280  4601              MOV      r1,r0
001282  9005              STR      r0,[sp,#0x14]
001284  9806              LDR      r0,[sp,#0x18]
001286  f7fffffe          BL       __aeabi_fmul
00128a  9007              STR      r0,[sp,#0x1c]
00128c  2209              MOVS     r2,#9
00128e  e00f              B        |L1.4784|
                  |L1.4752|
                          DCD      A_lin
                  |L1.4756|
                          DCD      b_A_lin
                  |L1.4760|
                          DCD      Q_not_empty
                  |L1.4764|
                          DCD      Q
                  |L1.4768|
                          DCD      P_apo
                  |L1.4772|
                          DCD      P_apr
                  |L1.4776|
                          DCD      b_a
                  |L1.4780|
                          DCD      b
                  |L1.4784|
0012b0  f8dd1af8          LDR      r1,[sp,#0xaf8]
0012b4  f8dd0b08          LDR      r0,[sp,#0xb08]
0012b8  fb021000          MLA      r0,r2,r0,r1
0012bc  f50d61c8          ADD      r1,sp,#0x640
0012c0  f8511020          LDR      r1,[r1,r0,LSL #2]
0012c4  9106              STR      r1,[sp,#0x18]
0012c6  9807              LDR      r0,[sp,#0x1c]
0012c8  f7fffffe          BL       __aeabi_fadd
0012cc  4601              MOV      r1,r0
0012ce  2309              MOVS     r3,#9
0012d0  f8dd2af8          LDR      r2,[sp,#0xaf8]
0012d4  f8dd0b08          LDR      r0,[sp,#0xb08]
0012d8  fb032000          MLA      r0,r3,r0,r2
0012dc  f50d62c8          ADD      r2,sp,#0x640
0012e0  f8421020          STR      r1,[r2,r0,LSL #2]
0012e4  f8dd0a54          LDR      r0,[sp,#0xa54]        ;928
0012e8  1c40              ADDS     r0,r0,#1              ;928
0012ea  f8cd0a54          STR      r0,[sp,#0xa54]        ;928
                  |L1.4846|
0012ee  f8dd0a54          LDR      r0,[sp,#0xa54]        ;928
0012f2  280c              CMP      r0,#0xc               ;928
0012f4  dbab              BLT      |L1.4686|
0012f6  f8dd0b08          LDR      r0,[sp,#0xb08]        ;926
0012fa  1c40              ADDS     r0,r0,#1              ;926
0012fc  f8cd0b08          STR      r0,[sp,#0xb08]        ;926
                  |L1.4864|
001300  f8dd0b08          LDR      r0,[sp,#0xb08]        ;926
001304  2809              CMP      r0,#9                 ;926
001306  db92              BLT      |L1.4654|
001308  f8dd0af8          LDR      r0,[sp,#0xaf8]        ;918
00130c  1c40              ADDS     r0,r0,#1              ;918
00130e  f8cd0af8          STR      r0,[sp,#0xaf8]        ;918
                  |L1.4882|
001312  f8dd0af8          LDR      r0,[sp,#0xaf8]        ;918
001316  2809              CMP      r0,#9                 ;918
001318  f6ffaf24          BLT      |L1.4452|
;;;930            }
;;;931          }
;;;932        }
;;;933    
;;;934        /* 'AttitudeEKF:190' S_k(1:9+1:end) = S_k(1:9+1:end) + R_v; */
;;;935        b_r_gyro[0] = r_gyro;
00131c  f8dd1b34          LDR      r1,[sp,#0xb34]
001320  f8cd161c          STR      r1,[sp,#0x61c]
;;;936        b_r_gyro[1] = r_gyro;
001324  f8dd1b34          LDR      r1,[sp,#0xb34]
001328  f8cd1620          STR      r1,[sp,#0x620]
;;;937        b_r_gyro[2] = r_gyro;
00132c  f8dd1b34          LDR      r1,[sp,#0xb34]
001330  f8cd1624          STR      r1,[sp,#0x624]
;;;938        b_r_gyro[3] = r_accel;
001334  f8dd1b38          LDR      r1,[sp,#0xb38]
001338  f8cd1628          STR      r1,[sp,#0x628]
;;;939        b_r_gyro[4] = r_accel;
00133c  f8dd1b38          LDR      r1,[sp,#0xb38]
001340  f8cd162c          STR      r1,[sp,#0x62c]
;;;940        b_r_gyro[5] = r_accel;
001344  f8dd1b38          LDR      r1,[sp,#0xb38]
001348  f8cd1630          STR      r1,[sp,#0x630]
;;;941        b_r_gyro[6] = r_mag;
00134c  f8dd1b3c          LDR      r1,[sp,#0xb3c]
001350  f8cd1634          STR      r1,[sp,#0x634]
;;;942        b_r_gyro[7] = r_mag;
001354  f8dd1b3c          LDR      r1,[sp,#0xb3c]
001358  f8cd1638          STR      r1,[sp,#0x638]
;;;943        b_r_gyro[8] = r_mag;
00135c  f8dd1b3c          LDR      r1,[sp,#0xb3c]
001360  f8cd163c          STR      r1,[sp,#0x63c]
;;;944        for (r2 = 0; r2 < 9; r2++) {
001364  2100              MOVS     r1,#0
001366  f8cd1af8          STR      r1,[sp,#0xaf8]
00136a  e01e              B        |L1.5034|
                  |L1.4972|
;;;945          b_O[r2] = S_k[10 * r2] + b_r_gyro[r2];
00136c  f20d611c          ADD      r1,sp,#0x61c
001370  f8dd0af8          LDR      r0,[sp,#0xaf8]
001374  f8511020          LDR      r1,[r1,r0,LSL #2]
001378  eb000080          ADD      r0,r0,r0,LSL #2
00137c  0040              LSLS     r0,r0,#1
00137e  9107              STR      r1,[sp,#0x1c]
001380  f50d61c8          ADD      r1,sp,#0x640
001384  f8511020          LDR      r1,[r1,r0,LSL #2]
001388  9106              STR      r1,[sp,#0x18]
00138a  e9dd0106          LDRD     r0,r1,[sp,#0x18]
00138e  f7fffffe          BL       __aeabi_fadd
001392  4601              MOV      r1,r0
001394  f60d2268          ADD      r2,sp,#0xa68
001398  f8dd0af8          LDR      r0,[sp,#0xaf8]
00139c  f8421020          STR      r1,[r2,r0,LSL #2]
0013a0  f8dd0af8          LDR      r0,[sp,#0xaf8]        ;944
0013a4  1c40              ADDS     r0,r0,#1              ;944
0013a6  f8cd0af8          STR      r0,[sp,#0xaf8]        ;944
                  |L1.5034|
0013aa  f8dd0af8          LDR      r0,[sp,#0xaf8]        ;944
0013ae  2809              CMP      r0,#9                 ;944
0013b0  dbdc              BLT      |L1.4972|
;;;946        }
;;;947    
;;;948        for (r2 = 0; r2 < 9; r2++) {
0013b2  2000              MOVS     r0,#0
0013b4  f8cd0af8          STR      r0,[sp,#0xaf8]
0013b8  e011              B        |L1.5086|
                  |L1.5050|
;;;949          S_k[10 * r2] = b_O[r2];
0013ba  f60d2168          ADD      r1,sp,#0xa68
0013be  f8dd0af8          LDR      r0,[sp,#0xaf8]
0013c2  f8511020          LDR      r1,[r1,r0,LSL #2]
0013c6  eb000080          ADD      r0,r0,r0,LSL #2
0013ca  0040              LSLS     r0,r0,#1
0013cc  f50d62c8          ADD      r2,sp,#0x640
0013d0  f8421020          STR      r1,[r2,r0,LSL #2]
0013d4  f8dd0af8          LDR      r0,[sp,#0xaf8]        ;948
0013d8  1c40              ADDS     r0,r0,#1              ;948
0013da  f8cd0af8          STR      r0,[sp,#0xaf8]        ;948
                  |L1.5086|
0013de  f8dd0af8          LDR      r0,[sp,#0xaf8]        ;948
0013e2  2809              CMP      r0,#9                 ;948
0013e4  dbe9              BLT      |L1.5050|
;;;950        }
;;;951    
;;;952        /* 'AttitudeEKF:191' K_k=(P_apr*H_k'/(S_k)); */
;;;953        for (r2 = 0; r2 < 12; r2++) {
0013e6  2000              MOVS     r0,#0
0013e8  f8cd0af8          STR      r0,[sp,#0xaf8]
0013ec  e063              B        |L1.5302|
                  |L1.5102|
;;;954          for (i = 0; i < 9; i++) {
0013ee  2000              MOVS     r0,#0
0013f0  f8cd0b08          STR      r0,[sp,#0xb08]
0013f4  e056              B        |L1.5284|
                  |L1.5110|
;;;955            a[r2 + 12 * i] = 0.0F;
0013f6  2200              MOVS     r2,#0
0013f8  230c              MOVS     r3,#0xc
0013fa  f8dd1af8          LDR      r1,[sp,#0xaf8]
0013fe  f8dd0b08          LDR      r0,[sp,#0xb08]
001402  fb031000          MLA      r0,r3,r0,r1
001406  f20d7184          ADD      r1,sp,#0x784
00140a  f8412020          STR      r2,[r1,r0,LSL #2]
;;;956            for (r1 = 0; r1 < 12; r1++) {
00140e  2100              MOVS     r1,#0
001410  f8cd1a54          STR      r1,[sp,#0xa54]
001414  e03d              B        |L1.5266|
                  |L1.5142|
;;;957              a[r2 + 12 * i] += P_apr[r2 + 12 * r1] * (float)b[r1 + 12 * i];
001416  220c              MOVS     r2,#0xc
001418  f8dd1a54          LDR      r1,[sp,#0xa54]
00141c  f8dd0b08          LDR      r0,[sp,#0xb08]
001420  fb021000          MLA      r0,r2,r0,r1
001424  49f8              LDR      r1,|L1.6152|
001426  5609              LDRSB    r1,[r1,r0]
001428  4608              MOV      r0,r1
00142a  9105              STR      r1,[sp,#0x14]
00142c  f7fffffe          BL       __aeabi_i2f
001430  9006              STR      r0,[sp,#0x18]
001432  220c              MOVS     r2,#0xc
001434  f8dd1af8          LDR      r1,[sp,#0xaf8]
001438  f8dd0a54          LDR      r0,[sp,#0xa54]
00143c  fb021000          MLA      r0,r2,r0,r1
001440  49f2              LDR      r1,|L1.6156|
001442  f8511020          LDR      r1,[r1,r0,LSL #2]
001446  9105              STR      r1,[sp,#0x14]
001448  9806              LDR      r0,[sp,#0x18]
00144a  f7fffffe          BL       __aeabi_fmul
00144e  9007              STR      r0,[sp,#0x1c]
001450  220c              MOVS     r2,#0xc
001452  f8dd1b08          LDR      r1,[sp,#0xb08]
001456  f8dd0af8          LDR      r0,[sp,#0xaf8]
00145a  fb020001          MLA      r0,r2,r1,r0
00145e  f20d7184          ADD      r1,sp,#0x784
001462  f8510020          LDR      r0,[r1,r0,LSL #2]
001466  4601              MOV      r1,r0
001468  9006              STR      r0,[sp,#0x18]
00146a  9807              LDR      r0,[sp,#0x1c]
00146c  f7fffffe          BL       __aeabi_fadd
001470  4601              MOV      r1,r0
001472  230c              MOVS     r3,#0xc
001474  f8dd2af8          LDR      r2,[sp,#0xaf8]
001478  f8dd0b08          LDR      r0,[sp,#0xb08]
00147c  fb032000          MLA      r0,r3,r0,r2
001480  f20d7284          ADD      r2,sp,#0x784
001484  f8421020          STR      r1,[r2,r0,LSL #2]
001488  f8dd0a54          LDR      r0,[sp,#0xa54]        ;956
00148c  1c40              ADDS     r0,r0,#1              ;956
00148e  f8cd0a54          STR      r0,[sp,#0xa54]        ;956
                  |L1.5266|
001492  f8dd0a54          LDR      r0,[sp,#0xa54]        ;956
001496  280c              CMP      r0,#0xc               ;956
001498  dbbd              BLT      |L1.5142|
00149a  f8dd0b08          LDR      r0,[sp,#0xb08]        ;954
00149e  1c40              ADDS     r0,r0,#1              ;954
0014a0  f8cd0b08          STR      r0,[sp,#0xb08]        ;954
                  |L1.5284|
0014a4  f8dd0b08          LDR      r0,[sp,#0xb08]        ;954
0014a8  2809              CMP      r0,#9                 ;954
0014aa  dba4              BLT      |L1.5110|
0014ac  f8dd0af8          LDR      r0,[sp,#0xaf8]        ;953
0014b0  1c40              ADDS     r0,r0,#1              ;953
0014b2  f8cd0af8          STR      r0,[sp,#0xaf8]        ;953
                  |L1.5302|
0014b6  f8dd0af8          LDR      r0,[sp,#0xaf8]        ;953
0014ba  280c              CMP      r0,#0xc               ;953
0014bc  db97              BLT      |L1.5102|
;;;958            }
;;;959          }
;;;960        }
;;;961    
;;;962        mrdivide(a, S_k, K_k);
0014be  f20d426c          ADD      r2,sp,#0x46c
0014c2  f50d61c8          ADD      r1,sp,#0x640
0014c6  f20d7084          ADD      r0,sp,#0x784
0014ca  f7fffffe          BL       mrdivide
;;;963    
;;;964        /* 'AttitudeEKF:194' x_apo=x_apr+K_k*y_k; */
;;;965        for (r2 = 0; r2 < 9; r2++) {
0014ce  2000              MOVS     r0,#0
0014d0  f8cd0af8          STR      r0,[sp,#0xaf8]
0014d4  e046              B        |L1.5476|
                  |L1.5334|
;;;966          maxval = 0.0F;
0014d6  2100              MOVS     r1,#0
0014d8  f8cd1a58          STR      r1,[sp,#0xa58]
;;;967          for (i = 0; i < 12; i++) {
0014dc  f8cd1b08          STR      r1,[sp,#0xb08]
0014e0  e024              B        |L1.5420|
                  |L1.5346|
;;;968            maxval += (float)b_a[r2 + 9 * i] * x_apr[i];
0014e2  2209              MOVS     r2,#9
0014e4  f8dd1af8          LDR      r1,[sp,#0xaf8]
0014e8  f8dd0b08          LDR      r0,[sp,#0xb08]
0014ec  fb021000          MLA      r0,r2,r0,r1
0014f0  49c7              LDR      r1,|L1.6160|
0014f2  5609              LDRSB    r1,[r1,r0]
0014f4  4608              MOV      r0,r1
0014f6  9105              STR      r1,[sp,#0x14]
0014f8  f7fffffe          BL       __aeabi_i2f
0014fc  f60d12f4          ADD      r2,sp,#0x9f4
001500  9006              STR      r0,[sp,#0x18]
001502  f8dd0b08          LDR      r0,[sp,#0xb08]
001506  f8520020          LDR      r0,[r2,r0,LSL #2]
00150a  4601              MOV      r1,r0
00150c  9005              STR      r0,[sp,#0x14]
00150e  9806              LDR      r0,[sp,#0x18]
001510  f7fffffe          BL       __aeabi_fmul
001514  9007              STR      r0,[sp,#0x1c]
001516  f8dd1a58          LDR      r1,[sp,#0xa58]
00151a  f7fffffe          BL       __aeabi_fadd
00151e  f8cd0a58          STR      r0,[sp,#0xa58]
001522  f8dd0b08          LDR      r0,[sp,#0xb08]        ;967
001526  1c40              ADDS     r0,r0,#1              ;967
001528  f8cd0b08          STR      r0,[sp,#0xb08]        ;967
                  |L1.5420|
00152c  f8dd0b08          LDR      r0,[sp,#0xb08]        ;967
001530  280c              CMP      r0,#0xc               ;967
001532  dbd6              BLT      |L1.5346|
;;;969          }
;;;970    
;;;971          b_O[r2] = z[r2] - maxval;
001534  f8dd1b20          LDR      r1,[sp,#0xb20]
001538  f8dd0af8          LDR      r0,[sp,#0xaf8]
00153c  f8511020          LDR      r1,[r1,r0,LSL #2]
001540  9107              STR      r1,[sp,#0x1c]
001542  f8dd1a58          LDR      r1,[sp,#0xa58]
001546  9807              LDR      r0,[sp,#0x1c]
001548  f7fffffe          BL       __aeabi_fsub
00154c  4601              MOV      r1,r0
00154e  f60d2268          ADD      r2,sp,#0xa68
001552  f8dd0af8          LDR      r0,[sp,#0xaf8]
001556  f8421020          STR      r1,[r2,r0,LSL #2]
00155a  f8dd0af8          LDR      r0,[sp,#0xaf8]        ;965
00155e  1c40              ADDS     r0,r0,#1              ;965
001560  f8cd0af8          STR      r0,[sp,#0xaf8]        ;965
                  |L1.5476|
001564  f8dd0af8          LDR      r0,[sp,#0xaf8]        ;965
001568  2809              CMP      r0,#9                 ;965
00156a  dbb4              BLT      |L1.5334|
;;;972        }
;;;973    
;;;974        for (r2 = 0; r2 < 12; r2++) {
00156c  2000              MOVS     r0,#0
00156e  f8cd0af8          STR      r0,[sp,#0xaf8]
001572  e041              B        |L1.5624|
                  |L1.5492|
;;;975          maxval = 0.0F;
001574  2100              MOVS     r1,#0
001576  f8cd1a58          STR      r1,[sp,#0xa58]
;;;976          for (i = 0; i < 9; i++) {
00157a  f8cd1b08          STR      r1,[sp,#0xb08]
00157e  e020              B        |L1.5570|
                  |L1.5504|
;;;977            maxval += K_k[r2 + 12 * i] * b_O[i];
001580  f60d2168          ADD      r1,sp,#0xa68
001584  f8dd0b08          LDR      r0,[sp,#0xb08]
001588  f8511020          LDR      r1,[r1,r0,LSL #2]
00158c  9106              STR      r1,[sp,#0x18]
00158e  220c              MOVS     r2,#0xc
001590  f8dd1af8          LDR      r1,[sp,#0xaf8]
001594  fb021000          MLA      r0,r2,r0,r1
001598  f20d416c          ADD      r1,sp,#0x46c
00159c  f8511020          LDR      r1,[r1,r0,LSL #2]
0015a0  9105              STR      r1,[sp,#0x14]
0015a2  e9dd0105          LDRD     r0,r1,[sp,#0x14]
0015a6  f7fffffe          BL       __aeabi_fmul
0015aa  9007              STR      r0,[sp,#0x1c]
0015ac  f8dd1a58          LDR      r1,[sp,#0xa58]
0015b0  f7fffffe          BL       __aeabi_fadd
0015b4  f8cd0a58          STR      r0,[sp,#0xa58]
0015b8  f8dd0b08          LDR      r0,[sp,#0xb08]        ;976
0015bc  1c40              ADDS     r0,r0,#1              ;976
0015be  f8cd0b08          STR      r0,[sp,#0xb08]        ;976
                  |L1.5570|
0015c2  f8dd0b08          LDR      r0,[sp,#0xb08]        ;976
0015c6  2809              CMP      r0,#9                 ;976
0015c8  dbda              BLT      |L1.5504|
;;;978          }
;;;979    
;;;980          x_apo[r2] = x_apr[r2] + maxval;
0015ca  f60d11f4          ADD      r1,sp,#0x9f4
0015ce  f8dd0af8          LDR      r0,[sp,#0xaf8]
0015d2  f8511020          LDR      r1,[r1,r0,LSL #2]
0015d6  9107              STR      r1,[sp,#0x1c]
0015d8  f8dd1a58          LDR      r1,[sp,#0xa58]
0015dc  9807              LDR      r0,[sp,#0x1c]
0015de  f7fffffe          BL       __aeabi_fadd
0015e2  4601              MOV      r1,r0
0015e4  4a8b              LDR      r2,|L1.6164|
0015e6  f8dd0af8          LDR      r0,[sp,#0xaf8]
0015ea  f8421020          STR      r1,[r2,r0,LSL #2]
0015ee  f8dd0af8          LDR      r0,[sp,#0xaf8]        ;974
0015f2  1c40              ADDS     r0,r0,#1              ;974
0015f4  f8cd0af8          STR      r0,[sp,#0xaf8]        ;974
                  |L1.5624|
0015f8  f8dd0af8          LDR      r0,[sp,#0xaf8]        ;974
0015fc  280c              CMP      r0,#0xc               ;974
0015fe  dbb9              BLT      |L1.5492|
;;;981        }
;;;982    
;;;983        /* 'AttitudeEKF:195' P_apo=(eye(12)-K_k*H_k)*P_apr; */
;;;984        memset(&I[0], 0, 144U * sizeof(signed char));
001600  2190              MOVS     r1,#0x90
001602  f60d1064          ADD      r0,sp,#0x964
001606  f7fffffe          BL       __aeabi_memclr4
;;;985        for (i = 0; i < 12; i++) {
00160a  2000              MOVS     r0,#0
00160c  f8cd0b08          STR      r0,[sp,#0xb08]
001610  e00d              B        |L1.5678|
                  |L1.5650|
;;;986          I[i + 12 * i] = 1;
001612  2201              MOVS     r2,#1
001614  210c              MOVS     r1,#0xc
001616  f8dd0b08          LDR      r0,[sp,#0xb08]
00161a  fb010000          MLA      r0,r1,r0,r0
00161e  f60d1164          ADD      r1,sp,#0x964
001622  540a              STRB     r2,[r1,r0]
001624  f8dd0b08          LDR      r0,[sp,#0xb08]        ;985
001628  1c40              ADDS     r0,r0,#1              ;985
00162a  f8cd0b08          STR      r0,[sp,#0xb08]        ;985
                  |L1.5678|
00162e  f8dd0b08          LDR      r0,[sp,#0xb08]        ;985
001632  280c              CMP      r0,#0xc               ;985
001634  dbed              BLT      |L1.5650|
;;;987        }
;;;988    
;;;989        for (r2 = 0; r2 < 12; r2++) {
001636  2000              MOVS     r0,#0
001638  f8cd0af8          STR      r0,[sp,#0xaf8]
00163c  e062              B        |L1.5892|
                  |L1.5694|
;;;990          for (i = 0; i < 12; i++) {
00163e  2000              MOVS     r0,#0
001640  f8cd0b08          STR      r0,[sp,#0xb08]
001644  e055              B        |L1.5874|
                  |L1.5702|
;;;991            maxval = 0.0F;
001646  2100              MOVS     r1,#0
001648  f8cd1a58          STR      r1,[sp,#0xa58]
;;;992            for (r1 = 0; r1 < 9; r1++) {
00164c  f8cd1a54          STR      r1,[sp,#0xa54]
001650  e028              B        |L1.5796|
                  |L1.5714|
;;;993              maxval += K_k[r2 + 12 * r1] * (float)b_a[r1 + 9 * i];
001652  2209              MOVS     r2,#9
001654  f8dd1a54          LDR      r1,[sp,#0xa54]
001658  f8dd0b08          LDR      r0,[sp,#0xb08]
00165c  fb021000          MLA      r0,r2,r0,r1
001660  496b              LDR      r1,|L1.6160|
001662  5609              LDRSB    r1,[r1,r0]
001664  4608              MOV      r0,r1
001666  9105              STR      r1,[sp,#0x14]
001668  f7fffffe          BL       __aeabi_i2f
00166c  9006              STR      r0,[sp,#0x18]
00166e  220c              MOVS     r2,#0xc
001670  f8dd1af8          LDR      r1,[sp,#0xaf8]
001674  f8dd0a54          LDR      r0,[sp,#0xa54]
001678  fb021000          MLA      r0,r2,r0,r1
00167c  f20d416c          ADD      r1,sp,#0x46c
001680  f8511020          LDR      r1,[r1,r0,LSL #2]
001684  9105              STR      r1,[sp,#0x14]
001686  9806              LDR      r0,[sp,#0x18]
001688  f7fffffe          BL       __aeabi_fmul
00168c  9007              STR      r0,[sp,#0x1c]
00168e  f8dd1a58          LDR      r1,[sp,#0xa58]
001692  f7fffffe          BL       __aeabi_fadd
001696  f8cd0a58          STR      r0,[sp,#0xa58]
00169a  f8dd0a54          LDR      r0,[sp,#0xa54]        ;992
00169e  1c40              ADDS     r0,r0,#1              ;992
0016a0  f8cd0a54          STR      r0,[sp,#0xa54]        ;992
                  |L1.5796|
0016a4  f8dd0a54          LDR      r0,[sp,#0xa54]        ;992
0016a8  2809              CMP      r0,#9                 ;992
0016aa  dbd2              BLT      |L1.5714|
;;;994            }
;;;995    
;;;996            A_lin[r2 + 12 * i] = (float)I[r2 + 12 * i] - maxval;
0016ac  220c              MOVS     r2,#0xc
0016ae  f8dd1af8          LDR      r1,[sp,#0xaf8]
0016b2  f8dd0b08          LDR      r0,[sp,#0xb08]
0016b6  fb021000          MLA      r0,r2,r0,r1
0016ba  f60d1164          ADD      r1,sp,#0x964
0016be  5609              LDRSB    r1,[r1,r0]
0016c0  4608              MOV      r0,r1
0016c2  9106              STR      r1,[sp,#0x18]
0016c4  f7fffffe          BL       __aeabi_i2f
0016c8  9007              STR      r0,[sp,#0x1c]
0016ca  f8dd1a58          LDR      r1,[sp,#0xa58]
0016ce  f7fffffe          BL       __aeabi_fsub
0016d2  4601              MOV      r1,r0
0016d4  230c              MOVS     r3,#0xc
0016d6  f8dd2af8          LDR      r2,[sp,#0xaf8]
0016da  f8dd0b08          LDR      r0,[sp,#0xb08]
0016de  fb032000          MLA      r0,r3,r0,r2
0016e2  4a4d              LDR      r2,|L1.6168|
0016e4  f8421020          STR      r1,[r2,r0,LSL #2]
0016e8  f8dd0b08          LDR      r0,[sp,#0xb08]        ;990
0016ec  1c40              ADDS     r0,r0,#1              ;990
0016ee  f8cd0b08          STR      r0,[sp,#0xb08]        ;990
                  |L1.5874|
0016f2  f8dd0b08          LDR      r0,[sp,#0xb08]        ;990
0016f6  280c              CMP      r0,#0xc               ;990
0016f8  dba5              BLT      |L1.5702|
0016fa  f8dd0af8          LDR      r0,[sp,#0xaf8]        ;989
0016fe  1c40              ADDS     r0,r0,#1              ;989
001700  f8cd0af8          STR      r0,[sp,#0xaf8]        ;989
                  |L1.5892|
001704  f8dd0af8          LDR      r0,[sp,#0xaf8]        ;989
001708  280c              CMP      r0,#0xc               ;989
00170a  db98              BLT      |L1.5694|
;;;997          }
;;;998        }
;;;999    
;;;1000       for (r2 = 0; r2 < 12; r2++) {
00170c  2000              MOVS     r0,#0
00170e  f8cd0af8          STR      r0,[sp,#0xaf8]
001712  e05c              B        |L1.6094|
                  |L1.5908|
;;;1001         for (i = 0; i < 12; i++) {
001714  2000              MOVS     r0,#0
001716  f8cd0b08          STR      r0,[sp,#0xb08]
00171a  e04f              B        |L1.6076|
                  |L1.5916|
;;;1002           P_apo[r2 + 12 * i] = 0.0F;
00171c  2200              MOVS     r2,#0
00171e  230c              MOVS     r3,#0xc
001720  f8dd1af8          LDR      r1,[sp,#0xaf8]
001724  f8dd0b08          LDR      r0,[sp,#0xb08]
001728  fb031000          MLA      r0,r3,r0,r1
00172c  493b              LDR      r1,|L1.6172|
00172e  f8412020          STR      r2,[r1,r0,LSL #2]
;;;1003           for (r1 = 0; r1 < 12; r1++) {
001732  2100              MOVS     r1,#0
001734  f8cd1a54          STR      r1,[sp,#0xa54]
001738  e037              B        |L1.6058|
                  |L1.5946|
;;;1004             P_apo[r2 + 12 * i] += A_lin[r2 + 12 * r1] * P_apr[r1 + 12 * i];
00173a  220c              MOVS     r2,#0xc
00173c  f8dd1a54          LDR      r1,[sp,#0xa54]
001740  f8dd0b08          LDR      r0,[sp,#0xb08]
001744  fb021000          MLA      r0,r2,r0,r1
001748  4930              LDR      r1,|L1.6156|
00174a  f8511020          LDR      r1,[r1,r0,LSL #2]
00174e  9106              STR      r1,[sp,#0x18]
001750  f8dd1af8          LDR      r1,[sp,#0xaf8]
001754  f8dd0a54          LDR      r0,[sp,#0xa54]
001758  fb021000          MLA      r0,r2,r0,r1
00175c  492e              LDR      r1,|L1.6168|
00175e  f8511020          LDR      r1,[r1,r0,LSL #2]
001762  9105              STR      r1,[sp,#0x14]
001764  e9dd0105          LDRD     r0,r1,[sp,#0x14]
001768  f7fffffe          BL       __aeabi_fmul
00176c  9007              STR      r0,[sp,#0x1c]
00176e  220c              MOVS     r2,#0xc
001770  f8dd1af8          LDR      r1,[sp,#0xaf8]
001774  f8dd0b08          LDR      r0,[sp,#0xb08]
001778  fb021000          MLA      r0,r2,r0,r1
00177c  4927              LDR      r1,|L1.6172|
00177e  f8511020          LDR      r1,[r1,r0,LSL #2]
001782  9106              STR      r1,[sp,#0x18]
001784  9807              LDR      r0,[sp,#0x1c]
001786  f7fffffe          BL       __aeabi_fadd
00178a  4601              MOV      r1,r0
00178c  230c              MOVS     r3,#0xc
00178e  f8dd2af8          LDR      r2,[sp,#0xaf8]
001792  f8dd0b08          LDR      r0,[sp,#0xb08]
001796  fb032000          MLA      r0,r3,r0,r2
00179a  4a20              LDR      r2,|L1.6172|
00179c  f8421020          STR      r1,[r2,r0,LSL #2]
0017a0  f8dd0a54          LDR      r0,[sp,#0xa54]        ;1003
0017a4  1c40              ADDS     r0,r0,#1              ;1003
0017a6  f8cd0a54          STR      r0,[sp,#0xa54]        ;1003
                  |L1.6058|
0017aa  f8dd0a54          LDR      r0,[sp,#0xa54]        ;1003
0017ae  280c              CMP      r0,#0xc               ;1003
0017b0  dbc3              BLT      |L1.5946|
0017b2  f8dd0b08          LDR      r0,[sp,#0xb08]        ;1001
0017b6  1c40              ADDS     r0,r0,#1              ;1001
0017b8  f8cd0b08          STR      r0,[sp,#0xb08]        ;1001
                  |L1.6076|
0017bc  f8dd0b08          LDR      r0,[sp,#0xb08]        ;1001
0017c0  280c              CMP      r0,#0xc               ;1001
0017c2  dbab              BLT      |L1.5916|
0017c4  f8dd0af8          LDR      r0,[sp,#0xaf8]        ;1000
0017c8  1c40              ADDS     r0,r0,#1              ;1000
0017ca  f8cd0af8          STR      r0,[sp,#0xaf8]        ;1000
                  |L1.6094|
0017ce  f8dd0af8          LDR      r0,[sp,#0xaf8]        ;1000
0017d2  280c              CMP      r0,#0xc               ;1000
0017d4  db9e              BLT      |L1.5908|
0017d6  f001bce8          B.W      |L1.12714|
                  |L1.6106|
;;;1005           }
;;;1006         }
;;;1007       }
;;;1008     } else {
;;;1009       /* 'AttitudeEKF:196' else */
;;;1010       /* 'AttitudeEKF:197' if zFlag(1)==1&&zFlag(2)==0&&zFlag(3)==0 */
;;;1011       if ((zFlag[0] == 1) && (zFlag[1] == 0) && (zFlag[2] == 0)) {
0017da  f8dd0b14          LDR      r0,[sp,#0xb14]
0017de  7800              LDRB     r0,[r0,#0]
0017e0  2801              CMP      r0,#1
                  |L1.6114|
0017e2  d17a              BNE      |L1.6362|
0017e4  f8dd0b14          LDR      r0,[sp,#0xb14]
0017e8  7840              LDRB     r0,[r0,#1]
0017ea  2800              CMP      r0,#0
0017ec  d1f9              BNE      |L1.6114|
0017ee  f8dd0b14          LDR      r0,[sp,#0xb14]
0017f2  7880              LDRB     r0,[r0,#2]
0017f4  2800              CMP      r0,#0
0017f6  d1f4              BNE      |L1.6114|
;;;1012         /* 'AttitudeEKF:199' R=[r_gyro,0,0; */
;;;1013         /* 'AttitudeEKF:200'             0,r_gyro,0; */
;;;1014         /* 'AttitudeEKF:201'             0,0,r_gyro]; */
;;;1015         /* 'AttitudeEKF:202' R_v=[r_gyro,r_gyro,r_gyro]; */
;;;1016         /* observation matrix */
;;;1017         /* 'AttitudeEKF:205' H_k=[  E,     Z,      Z,    Z]; */
;;;1018         /* 'AttitudeEKF:207' y_k=z(1:3)-H_k(1:3,1:12)*x_apr; */
;;;1019         /*  S_k=H_k(1:3,1:12)*P_apr*H_k(1:3,1:12)'+R(1:3,1:3); */
;;;1020         /* 'AttitudeEKF:210' S_k=H_k(1:3,1:12)*P_apr*H_k(1:3,1:12)'; */
;;;1021         for (r2 = 0; r2 < 3; r2++) {
0017f8  f8cd0af8          STR      r0,[sp,#0xaf8]
0017fc  e0ce              B        |L1.6556|
                  |L1.6142|
;;;1022           for (i = 0; i < 12; i++) {
0017fe  2000              MOVS     r0,#0
001800  f8cd0b08          STR      r0,[sp,#0xb08]
001804  e061              B        |L1.6346|
001806  0000              DCW      0x0000
                  |L1.6152|
                          DCD      b
                  |L1.6156|
                          DCD      P_apr
                  |L1.6160|
                          DCD      b_a
                  |L1.6164|
                          DCD      x_apo
                  |L1.6168|
                          DCD      A_lin
                  |L1.6172|
                          DCD      P_apo
                  |L1.6176|
;;;1023             b_S_k[r2 + 3 * i] = 0.0F;
001820  2200              MOVS     r2,#0
001822  2303              MOVS     r3,#3
001824  f8dd1af8          LDR      r1,[sp,#0xaf8]
001828  f8dd0b08          LDR      r0,[sp,#0xb08]
00182c  fb031000          MLA      r0,r3,r0,r1
001830  a9f7              ADD      r1,sp,#0x3dc
001832  f8412020          STR      r2,[r1,r0,LSL #2]
;;;1024             for (r1 = 0; r1 < 12; r1++) {
001836  2100              MOVS     r1,#0
001838  f8cd1a54          STR      r1,[sp,#0xa54]
00183c  e03c              B        |L1.6328|
                  |L1.6206|
;;;1025               b_S_k[r2 + 3 * i] += (float)c_a[r2 + 3 * r1] * P_apr[r1 + 12 * i];
00183e  2203              MOVS     r2,#3
001840  f8dd1af8          LDR      r1,[sp,#0xaf8]
001844  f8dd0a54          LDR      r0,[sp,#0xa54]
001848  fb021000          MLA      r0,r2,r0,r1
00184c  49fe              LDR      r1,|L1.7240|
00184e  5609              LDRSB    r1,[r1,r0]
001850  4608              MOV      r0,r1
001852  9105              STR      r1,[sp,#0x14]
001854  f7fffffe          BL       __aeabi_i2f
001858  9006              STR      r0,[sp,#0x18]
00185a  220c              MOVS     r2,#0xc
00185c  f8dd1b08          LDR      r1,[sp,#0xb08]
001860  f8dd0a54          LDR      r0,[sp,#0xa54]
001864  fb020001          MLA      r0,r2,r1,r0
001868  49f8              LDR      r1,|L1.7244|
00186a  f8510020          LDR      r0,[r1,r0,LSL #2]
00186e  4601              MOV      r1,r0
001870  9005              STR      r0,[sp,#0x14]
001872  9806              LDR      r0,[sp,#0x18]
001874  f7fffffe          BL       __aeabi_fmul
001878  9007              STR      r0,[sp,#0x1c]
00187a  2203              MOVS     r2,#3
00187c  f8dd1b08          LDR      r1,[sp,#0xb08]
001880  f8dd0af8          LDR      r0,[sp,#0xaf8]
001884  fb020001          MLA      r0,r2,r1,r0
001888  a9f7              ADD      r1,sp,#0x3dc
00188a  f8510020          LDR      r0,[r1,r0,LSL #2]
00188e  4601              MOV      r1,r0
001890  9006              STR      r0,[sp,#0x18]
001892  9807              LDR      r0,[sp,#0x1c]
001894  f7fffffe          BL       __aeabi_fadd
001898  4601              MOV      r1,r0
00189a  2303              MOVS     r3,#3
00189c  f8dd2af8          LDR      r2,[sp,#0xaf8]
0018a0  f8dd0b08          LDR      r0,[sp,#0xb08]
0018a4  fb032000          MLA      r0,r3,r0,r2
0018a8  aaf7              ADD      r2,sp,#0x3dc
0018aa  f8421020          STR      r1,[r2,r0,LSL #2]
0018ae  f8dd0a54          LDR      r0,[sp,#0xa54]        ;1024
0018b2  1c40              ADDS     r0,r0,#1              ;1024
0018b4  f8cd0a54          STR      r0,[sp,#0xa54]        ;1024
                  |L1.6328|
0018b8  f8dd0a54          LDR      r0,[sp,#0xa54]        ;1024
0018bc  280c              CMP      r0,#0xc               ;1024
0018be  dbbe              BLT      |L1.6206|
0018c0  f8dd0b08          LDR      r0,[sp,#0xb08]        ;1022
0018c4  1c40              ADDS     r0,r0,#1              ;1022
0018c6  f8cd0b08          STR      r0,[sp,#0xb08]        ;1022
                  |L1.6346|
0018ca  f8dd0b08          LDR      r0,[sp,#0xb08]        ;1022
0018ce  280c              CMP      r0,#0xc               ;1022
0018d0  dba6              BLT      |L1.6176|
;;;1026             }
;;;1027           }
;;;1028   
;;;1029           for (i = 0; i < 3; i++) {
0018d2  2000              MOVS     r0,#0
0018d4  f8cd0b08          STR      r0,[sp,#0xb08]
0018d8  e057              B        |L1.6538|
                  |L1.6362|
0018da  e3fc              B        |L1.8406|
                  |L1.6364|
;;;1030             O[r2 + 3 * i] = 0.0F;
0018dc  2200              MOVS     r2,#0
0018de  2303              MOVS     r3,#3
0018e0  f8dd1af8          LDR      r1,[sp,#0xaf8]
0018e4  f8dd0b08          LDR      r0,[sp,#0xb08]
0018e8  fb031000          MLA      r0,r3,r0,r1
0018ec  f60d218c          ADD      r1,sp,#0xa8c
0018f0  f8412020          STR      r2,[r1,r0,LSL #2]
;;;1031             for (r1 = 0; r1 < 12; r1++) {
0018f4  2100              MOVS     r1,#0
0018f6  f8cd1a54          STR      r1,[sp,#0xa54]
0018fa  e03d              B        |L1.6520|
                  |L1.6396|
;;;1032               O[r2 + 3 * i] += b_S_k[r2 + 3 * r1] * (float)b_b[r1 + 12 * i];
0018fc  220c              MOVS     r2,#0xc
0018fe  f8dd1a54          LDR      r1,[sp,#0xa54]
001902  f8dd0b08          LDR      r0,[sp,#0xb08]
001906  fb021000          MLA      r0,r2,r0,r1
00190a  49d1              LDR      r1,|L1.7248|
00190c  5609              LDRSB    r1,[r1,r0]
00190e  4608              MOV      r0,r1
001910  9105              STR      r1,[sp,#0x14]
001912  f7fffffe          BL       __aeabi_i2f
001916  9006              STR      r0,[sp,#0x18]
001918  2203              MOVS     r2,#3
00191a  f8dd1af8          LDR      r1,[sp,#0xaf8]
00191e  f8dd0a54          LDR      r0,[sp,#0xa54]
001922  fb021000          MLA      r0,r2,r0,r1
001926  a9f7              ADD      r1,sp,#0x3dc
001928  f8511020          LDR      r1,[r1,r0,LSL #2]
00192c  9105              STR      r1,[sp,#0x14]
00192e  9806              LDR      r0,[sp,#0x18]
001930  f7fffffe          BL       __aeabi_fmul
001934  9007              STR      r0,[sp,#0x1c]
001936  2203              MOVS     r2,#3
001938  f8dd1b08          LDR      r1,[sp,#0xb08]
00193c  f8dd0af8          LDR      r0,[sp,#0xaf8]
001940  fb020001          MLA      r0,r2,r1,r0
001944  f60d218c          ADD      r1,sp,#0xa8c
001948  f8510020          LDR      r0,[r1,r0,LSL #2]
00194c  4601              MOV      r1,r0
00194e  9006              STR      r0,[sp,#0x18]
001950  9807              LDR      r0,[sp,#0x1c]
001952  f7fffffe          BL       __aeabi_fadd
001956  4601              MOV      r1,r0
001958  2303              MOVS     r3,#3
00195a  f8dd2af8          LDR      r2,[sp,#0xaf8]
00195e  f8dd0b08          LDR      r0,[sp,#0xb08]
001962  fb032000          MLA      r0,r3,r0,r2
001966  f60d228c          ADD      r2,sp,#0xa8c
00196a  f8421020          STR      r1,[r2,r0,LSL #2]
00196e  f8dd0a54          LDR      r0,[sp,#0xa54]        ;1031
001972  1c40              ADDS     r0,r0,#1              ;1031
001974  f8cd0a54          STR      r0,[sp,#0xa54]        ;1031
                  |L1.6520|
001978  f8dd0a54          LDR      r0,[sp,#0xa54]        ;1031
00197c  280c              CMP      r0,#0xc               ;1031
00197e  dbbd              BLT      |L1.6396|
001980  f8dd0b08          LDR      r0,[sp,#0xb08]        ;1029
001984  1c40              ADDS     r0,r0,#1              ;1029
001986  f8cd0b08          STR      r0,[sp,#0xb08]        ;1029
                  |L1.6538|
00198a  f8dd0b08          LDR      r0,[sp,#0xb08]        ;1029
00198e  2803              CMP      r0,#3                 ;1029
001990  dba4              BLT      |L1.6364|
001992  f8dd0af8          LDR      r0,[sp,#0xaf8]        ;1021
001996  1c40              ADDS     r0,r0,#1              ;1021
001998  f8cd0af8          STR      r0,[sp,#0xaf8]        ;1021
                  |L1.6556|
00199c  f8dd0af8          LDR      r0,[sp,#0xaf8]        ;1021
0019a0  2803              CMP      r0,#3                 ;1021
0019a2  f6ffaf2c          BLT      |L1.6142|
;;;1033             }
;;;1034           }
;;;1035         }
;;;1036   
;;;1037         /* 'AttitudeEKF:211' S_k(1:3+1:end) = S_k(1:3+1:end) + R_v; */
;;;1038         c_r_gyro[0] = r_gyro;
0019a6  f8dd1b34          LDR      r1,[sp,#0xb34]
0019aa  91f4              STR      r1,[sp,#0x3d0]
;;;1039         c_r_gyro[1] = r_gyro;
0019ac  f8dd1b34          LDR      r1,[sp,#0xb34]
0019b0  91f5              STR      r1,[sp,#0x3d4]
;;;1040         c_r_gyro[2] = r_gyro;
0019b2  f8dd1b34          LDR      r1,[sp,#0xb34]
0019b6  91f6              STR      r1,[sp,#0x3d8]
;;;1041         for (r2 = 0; r2 < 3; r2++) {
0019b8  2100              MOVS     r1,#0
0019ba  f8cd1af8          STR      r1,[sp,#0xaf8]
0019be  e01b              B        |L1.6648|
                  |L1.6592|
;;;1042           b_muk[r2] = O[r2 << 2] + c_r_gyro[r2];
0019c0  a9f4              ADD      r1,sp,#0x3d0
0019c2  f8dd0af8          LDR      r0,[sp,#0xaf8]
0019c6  f8511020          LDR      r1,[r1,r0,LSL #2]
0019ca  0080              LSLS     r0,r0,#2
0019cc  9107              STR      r1,[sp,#0x1c]
0019ce  f60d218c          ADD      r1,sp,#0xa8c
0019d2  f8511020          LDR      r1,[r1,r0,LSL #2]
0019d6  9106              STR      r1,[sp,#0x18]
0019d8  e9dd0106          LDRD     r0,r1,[sp,#0x18]
0019dc  f7fffffe          BL       __aeabi_fadd
0019e0  4601              MOV      r1,r0
0019e2  f60d22d4          ADD      r2,sp,#0xad4
0019e6  f8dd0af8          LDR      r0,[sp,#0xaf8]
0019ea  f8421020          STR      r1,[r2,r0,LSL #2]
0019ee  f8dd0af8          LDR      r0,[sp,#0xaf8]        ;1041
0019f2  1c40              ADDS     r0,r0,#1              ;1041
0019f4  f8cd0af8          STR      r0,[sp,#0xaf8]        ;1041
                  |L1.6648|
0019f8  f8dd0af8          LDR      r0,[sp,#0xaf8]        ;1041
0019fc  2803              CMP      r0,#3                 ;1041
0019fe  dbdf              BLT      |L1.6592|
;;;1043         }
;;;1044   
;;;1045         for (r2 = 0; r2 < 3; r2++) {
001a00  2000              MOVS     r0,#0
001a02  f8cd0af8          STR      r0,[sp,#0xaf8]
001a06  e00f              B        |L1.6696|
                  |L1.6664|
;;;1046           O[r2 << 2] = b_muk[r2];
001a08  f60d21d4          ADD      r1,sp,#0xad4
001a0c  f8dd0af8          LDR      r0,[sp,#0xaf8]
001a10  f8511020          LDR      r1,[r1,r0,LSL #2]
001a14  0080              LSLS     r0,r0,#2
001a16  f60d228c          ADD      r2,sp,#0xa8c
001a1a  f8421020          STR      r1,[r2,r0,LSL #2]
001a1e  f8dd0af8          LDR      r0,[sp,#0xaf8]        ;1045
001a22  1c40              ADDS     r0,r0,#1              ;1045
001a24  f8cd0af8          STR      r0,[sp,#0xaf8]        ;1045
                  |L1.6696|
001a28  f8dd0af8          LDR      r0,[sp,#0xaf8]        ;1045
001a2c  2803              CMP      r0,#3                 ;1045
001a2e  dbeb              BLT      |L1.6664|
;;;1047         }
;;;1048   
;;;1049         /* 'AttitudeEKF:212' K_k=(P_apr*H_k(1:3,1:12)'/(S_k)); */
;;;1050         for (r2 = 0; r2 < 3; r2++) {
001a30  2000              MOVS     r0,#0
001a32  f8cd0af8          STR      r0,[sp,#0xaf8]
001a36  e084              B        |L1.6978|
                  |L1.6712|
;;;1051           for (i = 0; i < 3; i++) {
001a38  2000              MOVS     r0,#0
001a3a  f8cd0b08          STR      r0,[sp,#0xb08]
001a3e  e01a              B        |L1.6774|
                  |L1.6720|
;;;1052             b_O[i + 3 * r2] = O[r2 + 3 * i];
001a40  2203              MOVS     r2,#3
001a42  f8dd1af8          LDR      r1,[sp,#0xaf8]
001a46  f8dd0b08          LDR      r0,[sp,#0xb08]
001a4a  fb021000          MLA      r0,r2,r0,r1
001a4e  f60d218c          ADD      r1,sp,#0xa8c
001a52  f8512020          LDR      r2,[r1,r0,LSL #2]
001a56  2303              MOVS     r3,#3
001a58  f8dd1b08          LDR      r1,[sp,#0xb08]
001a5c  f8dd0af8          LDR      r0,[sp,#0xaf8]
001a60  fb031000          MLA      r0,r3,r0,r1
001a64  f60d2168          ADD      r1,sp,#0xa68
001a68  f8412020          STR      r2,[r1,r0,LSL #2]
001a6c  f8dd0b08          LDR      r0,[sp,#0xb08]        ;1051
001a70  1c40              ADDS     r0,r0,#1              ;1051
001a72  f8cd0b08          STR      r0,[sp,#0xb08]        ;1051
                  |L1.6774|
001a76  f8dd0b08          LDR      r0,[sp,#0xb08]        ;1051
001a7a  2803              CMP      r0,#3                 ;1051
001a7c  dbe0              BLT      |L1.6720|
;;;1053           }
;;;1054   
;;;1055           for (i = 0; i < 12; i++) {
001a7e  2000              MOVS     r0,#0
001a80  f8cd0b08          STR      r0,[sp,#0xb08]
001a84  e054              B        |L1.6960|
                  |L1.6790|
;;;1056             B[r2 + 3 * i] = 0.0F;
001a86  2200              MOVS     r2,#0
001a88  2303              MOVS     r3,#3
001a8a  f8dd1af8          LDR      r1,[sp,#0xaf8]
001a8e  f8dd0b08          LDR      r0,[sp,#0xb08]
001a92  fb031000          MLA      r0,r3,r0,r1
001a96  a9d0              ADD      r1,sp,#0x340
001a98  f8412020          STR      r2,[r1,r0,LSL #2]
;;;1057             for (r1 = 0; r1 < 12; r1++) {
001a9c  2100              MOVS     r1,#0
001a9e  f8cd1a54          STR      r1,[sp,#0xa54]
001aa2  e03c              B        |L1.6942|
                  |L1.6820|
;;;1058               B[r2 + 3 * i] += P_apr[i + 12 * r1] * (float)b_b[r1 + 12 * r2];
001aa4  220c              MOVS     r2,#0xc
001aa6  f8dd1a54          LDR      r1,[sp,#0xa54]
001aaa  f8dd0af8          LDR      r0,[sp,#0xaf8]
001aae  fb021000          MLA      r0,r2,r0,r1
001ab2  4967              LDR      r1,|L1.7248|
001ab4  5609              LDRSB    r1,[r1,r0]
001ab6  4608              MOV      r0,r1
001ab8  9105              STR      r1,[sp,#0x14]
001aba  f7fffffe          BL       __aeabi_i2f
001abe  9006              STR      r0,[sp,#0x18]
001ac0  220c              MOVS     r2,#0xc
001ac2  f8dd1a54          LDR      r1,[sp,#0xa54]
001ac6  f8dd0b08          LDR      r0,[sp,#0xb08]
001aca  fb020001          MLA      r0,r2,r1,r0
001ace  495f              LDR      r1,|L1.7244|
001ad0  f8510020          LDR      r0,[r1,r0,LSL #2]
001ad4  4601              MOV      r1,r0
001ad6  9005              STR      r0,[sp,#0x14]
001ad8  9806              LDR      r0,[sp,#0x18]
001ada  f7fffffe          BL       __aeabi_fmul
001ade  9007              STR      r0,[sp,#0x1c]
001ae0  2203              MOVS     r2,#3
001ae2  f8dd1b08          LDR      r1,[sp,#0xb08]
001ae6  f8dd0af8          LDR      r0,[sp,#0xaf8]
001aea  fb020001          MLA      r0,r2,r1,r0
001aee  a9d0              ADD      r1,sp,#0x340
001af0  f8510020          LDR      r0,[r1,r0,LSL #2]
001af4  4601              MOV      r1,r0
001af6  9006              STR      r0,[sp,#0x18]
001af8  9807              LDR      r0,[sp,#0x1c]
001afa  f7fffffe          BL       __aeabi_fadd
001afe  4601              MOV      r1,r0
001b00  2303              MOVS     r3,#3
001b02  f8dd2af8          LDR      r2,[sp,#0xaf8]
001b06  f8dd0b08          LDR      r0,[sp,#0xb08]
001b0a  fb032000          MLA      r0,r3,r0,r2
001b0e  aad0              ADD      r2,sp,#0x340
001b10  f8421020          STR      r1,[r2,r0,LSL #2]
001b14  f8dd0a54          LDR      r0,[sp,#0xa54]        ;1057
001b18  1c40              ADDS     r0,r0,#1              ;1057
001b1a  f8cd0a54          STR      r0,[sp,#0xa54]        ;1057
                  |L1.6942|
001b1e  f8dd0a54          LDR      r0,[sp,#0xa54]        ;1057
001b22  280c              CMP      r0,#0xc               ;1057
001b24  dbbe              BLT      |L1.6820|
001b26  f8dd0b08          LDR      r0,[sp,#0xb08]        ;1055
001b2a  1c40              ADDS     r0,r0,#1              ;1055
001b2c  f8cd0b08          STR      r0,[sp,#0xb08]        ;1055
                  |L1.6960|
001b30  f8dd0b08          LDR      r0,[sp,#0xb08]        ;1055
001b34  280c              CMP      r0,#0xc               ;1055
001b36  dba6              BLT      |L1.6790|
001b38  f8dd0af8          LDR      r0,[sp,#0xaf8]        ;1050
001b3c  1c40              ADDS     r0,r0,#1              ;1050
001b3e  f8cd0af8          STR      r0,[sp,#0xaf8]        ;1050
                  |L1.6978|
001b42  f8dd0af8          LDR      r0,[sp,#0xaf8]        ;1050
001b46  2803              CMP      r0,#3                 ;1050
001b48  f6ffaf76          BLT      |L1.6712|
;;;1059             }
;;;1060           }
;;;1061         }
;;;1062   
;;;1063         r1 = 0;
001b4c  2100              MOVS     r1,#0
001b4e  f8cd1a54          STR      r1,[sp,#0xa54]
;;;1064         r2 = 1;
001b52  2101              MOVS     r1,#1
001b54  f8cd1af8          STR      r1,[sp,#0xaf8]
;;;1065         r3 = 2;
001b58  2102              MOVS     r1,#2
001b5a  91cf              STR      r1,[sp,#0x33c]
;;;1066         maxval = (real32_T)fabs(b_O[0]);
001b5c  f8dd1a68          LDR      r1,[sp,#0xa68]
001b60  4608              MOV      r0,r1
001b62  9105              STR      r1,[sp,#0x14]
001b64  f7fffffe          BL       __aeabi_f2d
001b68  f0214100          BIC      r1,r1,#0x80000000
001b6c  e9cd0106          STRD     r0,r1,[sp,#0x18]
001b70  f7fffffe          BL       __aeabi_d2f
001b74  f8cd0a58          STR      r0,[sp,#0xa58]
;;;1067         a21 = (real32_T)fabs(b_O[1]);
001b78  f8dd0a6c          LDR      r0,[sp,#0xa6c]
001b7c  9005              STR      r0,[sp,#0x14]
001b7e  f7fffffe          BL       __aeabi_f2d
001b82  f0214100          BIC      r1,r1,#0x80000000
001b86  e9cd0106          STRD     r0,r1,[sp,#0x18]
001b8a  f7fffffe          BL       __aeabi_d2f
001b8e  90ce              STR      r0,[sp,#0x338]
;;;1068         if (a21 > maxval) {
001b90  f8dd1a58          LDR      r1,[sp,#0xa58]
001b94  98ce              LDR      r0,[sp,#0x338]
001b96  f7fffffe          BL       __aeabi_cfrcmple
001b9a  d208              BCS      |L1.7086|
;;;1069           maxval = a21;
001b9c  99ce              LDR      r1,[sp,#0x338]
001b9e  f8cd1a58          STR      r1,[sp,#0xa58]
;;;1070           r1 = 1;
001ba2  2101              MOVS     r1,#1
001ba4  f8cd1a54          STR      r1,[sp,#0xa54]
;;;1071           r2 = 0;
001ba8  2100              MOVS     r1,#0
001baa  f8cd1af8          STR      r1,[sp,#0xaf8]
                  |L1.7086|
;;;1072         }
;;;1073   
;;;1074         if ((real32_T)fabs(b_O[2]) > maxval) {
001bae  f8dd1a70          LDR      r1,[sp,#0xa70]
001bb2  4608              MOV      r0,r1
001bb4  9103              STR      r1,[sp,#0xc]
001bb6  f7fffffe          BL       __aeabi_f2d
001bba  f0214100          BIC      r1,r1,#0x80000000
001bbe  e9cd0104          STRD     r0,r1,[sp,#0x10]
001bc2  f7fffffe          BL       __aeabi_d2f
001bc6  9007              STR      r0,[sp,#0x1c]
001bc8  f8dd1a58          LDR      r1,[sp,#0xa58]
001bcc  f7fffffe          BL       __aeabi_cfrcmple
001bd0  d207              BCS      |L1.7138|
;;;1075           r1 = 2;
001bd2  2102              MOVS     r1,#2
001bd4  f8cd1a54          STR      r1,[sp,#0xa54]
;;;1076           r2 = 1;
001bd8  2101              MOVS     r1,#1
001bda  f8cd1af8          STR      r1,[sp,#0xaf8]
;;;1077           r3 = 0;
001bde  2100              MOVS     r1,#0
001be0  91cf              STR      r1,[sp,#0x33c]
                  |L1.7138|
;;;1078         }
;;;1079   
;;;1080         b_O[r2] /= b_O[r1];
001be2  f60d2168          ADD      r1,sp,#0xa68
001be6  f8dd0a54          LDR      r0,[sp,#0xa54]
001bea  f8511020          LDR      r1,[r1,r0,LSL #2]
001bee  9107              STR      r1,[sp,#0x1c]
001bf0  f60d2168          ADD      r1,sp,#0xa68
001bf4  f8dd0af8          LDR      r0,[sp,#0xaf8]
001bf8  f8511020          LDR      r1,[r1,r0,LSL #2]
001bfc  9106              STR      r1,[sp,#0x18]
001bfe  e9dd0106          LDRD     r0,r1,[sp,#0x18]
001c02  f7fffffe          BL       __aeabi_fdiv
001c06  4601              MOV      r1,r0
001c08  f60d2268          ADD      r2,sp,#0xa68
001c0c  f8dd0af8          LDR      r0,[sp,#0xaf8]
001c10  f8421020          STR      r1,[r2,r0,LSL #2]
;;;1081         b_O[r3] /= b_O[r1];
001c14  4611              MOV      r1,r2
001c16  f8dd0a54          LDR      r0,[sp,#0xa54]
001c1a  f8511020          LDR      r1,[r1,r0,LSL #2]
001c1e  9107              STR      r1,[sp,#0x1c]
001c20  4611              MOV      r1,r2
001c22  98cf              LDR      r0,[sp,#0x33c]
001c24  f8511020          LDR      r1,[r1,r0,LSL #2]
001c28  9106              STR      r1,[sp,#0x18]
001c2a  e9dd0106          LDRD     r0,r1,[sp,#0x18]
001c2e  f7fffffe          BL       __aeabi_fdiv
001c32  4601              MOV      r1,r0
001c34  f60d2268          ADD      r2,sp,#0xa68
001c38  98cf              LDR      r0,[sp,#0x33c]
001c3a  f8421020          STR      r1,[r2,r0,LSL #2]
;;;1082         b_O[3 + r2] -= b_O[r2] * b_O[3 + r1];
001c3e  f8dd0a54          LDR      r0,[sp,#0xa54]
001c42  1cc0              ADDS     r0,r0,#3
001c44  4611              MOV      r1,r2
001c46  e005              B        |L1.7252|
                  |L1.7240|
                          DCD      ||c_a||
                  |L1.7244|
                          DCD      P_apr
                  |L1.7248|
                          DCD      b_b
                  |L1.7252|
001c54  f8511020          LDR      r1,[r1,r0,LSL #2]
001c58  9106              STR      r1,[sp,#0x18]
001c5a  4611              MOV      r1,r2
001c5c  f8dd0af8          LDR      r0,[sp,#0xaf8]
001c60  f8511020          LDR      r1,[r1,r0,LSL #2]
001c64  9105              STR      r1,[sp,#0x14]
001c66  e9dd0105          LDRD     r0,r1,[sp,#0x14]
001c6a  f7fffffe          BL       __aeabi_fmul
001c6e  9007              STR      r0,[sp,#0x1c]
001c70  f8dd0af8          LDR      r0,[sp,#0xaf8]
001c74  1cc0              ADDS     r0,r0,#3
001c76  f60d2168          ADD      r1,sp,#0xa68
001c7a  f8511020          LDR      r1,[r1,r0,LSL #2]
001c7e  9106              STR      r1,[sp,#0x18]
001c80  9807              LDR      r0,[sp,#0x1c]
001c82  f7fffffe          BL       __aeabi_frsub
001c86  4601              MOV      r1,r0
001c88  f8dd0af8          LDR      r0,[sp,#0xaf8]
001c8c  1cc0              ADDS     r0,r0,#3
001c8e  f60d2268          ADD      r2,sp,#0xa68
001c92  f8421020          STR      r1,[r2,r0,LSL #2]
;;;1083         b_O[3 + r3] -= b_O[r3] * b_O[3 + r1];
001c96  f8dd0a54          LDR      r0,[sp,#0xa54]
001c9a  1cc0              ADDS     r0,r0,#3
001c9c  4611              MOV      r1,r2
001c9e  f8511020          LDR      r1,[r1,r0,LSL #2]
001ca2  9106              STR      r1,[sp,#0x18]
001ca4  4611              MOV      r1,r2
001ca6  98cf              LDR      r0,[sp,#0x33c]
001ca8  f8511020          LDR      r1,[r1,r0,LSL #2]
001cac  9105              STR      r1,[sp,#0x14]
001cae  e9dd0105          LDRD     r0,r1,[sp,#0x14]
001cb2  f7fffffe          BL       __aeabi_fmul
001cb6  9007              STR      r0,[sp,#0x1c]
001cb8  98cf              LDR      r0,[sp,#0x33c]
001cba  1cc0              ADDS     r0,r0,#3
001cbc  f60d2168          ADD      r1,sp,#0xa68
001cc0  f8511020          LDR      r1,[r1,r0,LSL #2]
001cc4  9106              STR      r1,[sp,#0x18]
001cc6  9807              LDR      r0,[sp,#0x1c]
001cc8  f7fffffe          BL       __aeabi_frsub
001ccc  4601              MOV      r1,r0
001cce  98cf              LDR      r0,[sp,#0x33c]
001cd0  1cc0              ADDS     r0,r0,#3
001cd2  f60d2268          ADD      r2,sp,#0xa68
001cd6  f8421020          STR      r1,[r2,r0,LSL #2]
;;;1084         b_O[6 + r2] -= b_O[r2] * b_O[6 + r1];
001cda  f8dd0a54          LDR      r0,[sp,#0xa54]
001cde  1d80              ADDS     r0,r0,#6
001ce0  4611              MOV      r1,r2
001ce2  f8511020          LDR      r1,[r1,r0,LSL #2]
001ce6  9106              STR      r1,[sp,#0x18]
001ce8  4611              MOV      r1,r2
001cea  f8dd0af8          LDR      r0,[sp,#0xaf8]
001cee  f8511020          LDR      r1,[r1,r0,LSL #2]
001cf2  9105              STR      r1,[sp,#0x14]
001cf4  e9dd0105          LDRD     r0,r1,[sp,#0x14]
001cf8  f7fffffe          BL       __aeabi_fmul
001cfc  9007              STR      r0,[sp,#0x1c]
001cfe  f8dd0af8          LDR      r0,[sp,#0xaf8]
001d02  1d80              ADDS     r0,r0,#6
001d04  f60d2168          ADD      r1,sp,#0xa68
001d08  f8511020          LDR      r1,[r1,r0,LSL #2]
001d0c  9106              STR      r1,[sp,#0x18]
001d0e  9807              LDR      r0,[sp,#0x1c]
001d10  f7fffffe          BL       __aeabi_frsub
001d14  4601              MOV      r1,r0
001d16  f8dd0af8          LDR      r0,[sp,#0xaf8]
001d1a  1d80              ADDS     r0,r0,#6
001d1c  f60d2268          ADD      r2,sp,#0xa68
001d20  f8421020          STR      r1,[r2,r0,LSL #2]
;;;1085         b_O[6 + r3] -= b_O[r3] * b_O[6 + r1];
001d24  f8dd0a54          LDR      r0,[sp,#0xa54]
001d28  1d80              ADDS     r0,r0,#6
001d2a  4611              MOV      r1,r2
001d2c  f8511020          LDR      r1,[r1,r0,LSL #2]
001d30  9106              STR      r1,[sp,#0x18]
001d32  4611              MOV      r1,r2
001d34  98cf              LDR      r0,[sp,#0x33c]
001d36  f8511020          LDR      r1,[r1,r0,LSL #2]
001d3a  9105              STR      r1,[sp,#0x14]
001d3c  e9dd0105          LDRD     r0,r1,[sp,#0x14]
001d40  f7fffffe          BL       __aeabi_fmul
001d44  9007              STR      r0,[sp,#0x1c]
001d46  98cf              LDR      r0,[sp,#0x33c]
001d48  1d80              ADDS     r0,r0,#6
001d4a  f60d2168          ADD      r1,sp,#0xa68
001d4e  f8510020          LDR      r0,[r1,r0,LSL #2]
001d52  4601              MOV      r1,r0
001d54  9006              STR      r0,[sp,#0x18]
001d56  9807              LDR      r0,[sp,#0x1c]
001d58  f7fffffe          BL       __aeabi_frsub
001d5c  4601              MOV      r1,r0
001d5e  98cf              LDR      r0,[sp,#0x33c]
001d60  1d80              ADDS     r0,r0,#6
001d62  f60d2268          ADD      r2,sp,#0xa68
001d66  f8421020          STR      r1,[r2,r0,LSL #2]
;;;1086         if ((real32_T)fabs(b_O[3 + r3]) > (real32_T)fabs(b_O[3 + r2])) {
001d6a  f8dd0af8          LDR      r0,[sp,#0xaf8]
001d6e  1cc0              ADDS     r0,r0,#3
001d70  4611              MOV      r1,r2
001d72  f8511020          LDR      r1,[r1,r0,LSL #2]
001d76  4608              MOV      r0,r1
001d78  9103              STR      r1,[sp,#0xc]
001d7a  f7fffffe          BL       __aeabi_f2d
001d7e  f0214100          BIC      r1,r1,#0x80000000
001d82  e9cd0104          STRD     r0,r1,[sp,#0x10]
001d86  f7fffffe          BL       __aeabi_d2f
001d8a  9007              STR      r0,[sp,#0x1c]
001d8c  98cf              LDR      r0,[sp,#0x33c]
001d8e  1cc0              ADDS     r0,r0,#3
001d90  f60d2168          ADD      r1,sp,#0xa68
001d94  f8510020          LDR      r0,[r1,r0,LSL #2]
001d98  9003              STR      r0,[sp,#0xc]
001d9a  f7fffffe          BL       __aeabi_f2d
001d9e  f0214100          BIC      r1,r1,#0x80000000
001da2  e9cd0104          STRD     r0,r1,[sp,#0x10]
001da6  f7fffffe          BL       __aeabi_d2f
001daa  9006              STR      r0,[sp,#0x18]
001dac  9907              LDR      r1,[sp,#0x1c]
001dae  f7fffffe          BL       __aeabi_cfrcmple
001db2  d209              BCS      |L1.7624|
;;;1087           i = r2;
001db4  f8dd1af8          LDR      r1,[sp,#0xaf8]
001db8  f8cd1b08          STR      r1,[sp,#0xb08]
;;;1088           r2 = r3;
001dbc  99cf              LDR      r1,[sp,#0x33c]
001dbe  f8cd1af8          STR      r1,[sp,#0xaf8]
;;;1089           r3 = i;
001dc2  f8dd0b08          LDR      r0,[sp,#0xb08]
001dc6  90cf              STR      r0,[sp,#0x33c]
                  |L1.7624|
;;;1090         }
;;;1091   
;;;1092         b_O[3 + r3] /= b_O[3 + r2];
001dc8  f8dd0af8          LDR      r0,[sp,#0xaf8]
001dcc  1cc0              ADDS     r0,r0,#3
001dce  f60d2168          ADD      r1,sp,#0xa68
001dd2  f8511020          LDR      r1,[r1,r0,LSL #2]
001dd6  9107              STR      r1,[sp,#0x1c]
001dd8  98cf              LDR      r0,[sp,#0x33c]
001dda  1cc0              ADDS     r0,r0,#3
001ddc  f60d2168          ADD      r1,sp,#0xa68
001de0  f8511020          LDR      r1,[r1,r0,LSL #2]
001de4  9106              STR      r1,[sp,#0x18]
001de6  e9dd0106          LDRD     r0,r1,[sp,#0x18]
001dea  f7fffffe          BL       __aeabi_fdiv
001dee  4601              MOV      r1,r0
001df0  98cf              LDR      r0,[sp,#0x33c]
001df2  1cc0              ADDS     r0,r0,#3
001df4  f60d2268          ADD      r2,sp,#0xa68
001df8  f8421020          STR      r1,[r2,r0,LSL #2]
;;;1093         b_O[6 + r3] -= b_O[3 + r3] * b_O[6 + r2];
001dfc  f8dd0af8          LDR      r0,[sp,#0xaf8]
001e00  1d80              ADDS     r0,r0,#6
001e02  4611              MOV      r1,r2
001e04  f8511020          LDR      r1,[r1,r0,LSL #2]
001e08  9106              STR      r1,[sp,#0x18]
001e0a  98cf              LDR      r0,[sp,#0x33c]
001e0c  1cc0              ADDS     r0,r0,#3
001e0e  4611              MOV      r1,r2
001e10  f8511020          LDR      r1,[r1,r0,LSL #2]
001e14  9105              STR      r1,[sp,#0x14]
001e16  e9dd0105          LDRD     r0,r1,[sp,#0x14]
001e1a  f7fffffe          BL       __aeabi_fmul
001e1e  9007              STR      r0,[sp,#0x1c]
001e20  98cf              LDR      r0,[sp,#0x33c]
001e22  1d80              ADDS     r0,r0,#6
001e24  f60d2168          ADD      r1,sp,#0xa68
001e28  f8510020          LDR      r0,[r1,r0,LSL #2]
001e2c  4601              MOV      r1,r0
001e2e  9006              STR      r0,[sp,#0x18]
001e30  9807              LDR      r0,[sp,#0x1c]
001e32  f7fffffe          BL       __aeabi_frsub
001e36  4601              MOV      r1,r0
001e38  98cf              LDR      r0,[sp,#0x33c]
001e3a  1d80              ADDS     r0,r0,#6
001e3c  f60d2268          ADD      r2,sp,#0xa68
001e40  f8421020          STR      r1,[r2,r0,LSL #2]
;;;1094         for (i = 0; i < 12; i++) {
001e44  2100              MOVS     r1,#0
001e46  f8cd1b08          STR      r1,[sp,#0xb08]
001e4a  e15c              B        |L1.8454|
                  |L1.7756|
;;;1095           Y[3 * i] = B[r1 + 3 * i];
001e4c  2203              MOVS     r2,#3
001e4e  f8dd1a54          LDR      r1,[sp,#0xa54]
001e52  f8dd0b08          LDR      r0,[sp,#0xb08]
001e56  fb021000          MLA      r0,r2,r0,r1
001e5a  a9d0              ADD      r1,sp,#0x340
001e5c  f8511020          LDR      r1,[r1,r0,LSL #2]
001e60  f8dd0b08          LDR      r0,[sp,#0xb08]
001e64  eb000040          ADD      r0,r0,r0,LSL #1
001e68  aaaa              ADD      r2,sp,#0x2a8
001e6a  f8421020          STR      r1,[r2,r0,LSL #2]
;;;1096           Y[1 + 3 * i] = B[r2 + 3 * i] - Y[3 * i] * b_O[r2];
001e6e  f60d2168          ADD      r1,sp,#0xa68
001e72  f8dd0af8          LDR      r0,[sp,#0xaf8]
001e76  f8511020          LDR      r1,[r1,r0,LSL #2]
001e7a  9106              STR      r1,[sp,#0x18]
001e7c  f8dd0b08          LDR      r0,[sp,#0xb08]
001e80  eb000040          ADD      r0,r0,r0,LSL #1
001e84  a9aa              ADD      r1,sp,#0x2a8
001e86  f8511020          LDR      r1,[r1,r0,LSL #2]
001e8a  9105              STR      r1,[sp,#0x14]
001e8c  e9dd0105          LDRD     r0,r1,[sp,#0x14]
001e90  f7fffffe          BL       __aeabi_fmul
001e94  9007              STR      r0,[sp,#0x1c]
001e96  2203              MOVS     r2,#3
001e98  f8dd1b08          LDR      r1,[sp,#0xb08]
001e9c  f8dd0af8          LDR      r0,[sp,#0xaf8]
001ea0  fb020001          MLA      r0,r2,r1,r0
001ea4  a9d0              ADD      r1,sp,#0x340
001ea6  f8510020          LDR      r0,[r1,r0,LSL #2]
001eaa  4601              MOV      r1,r0
001eac  9006              STR      r0,[sp,#0x18]
001eae  9807              LDR      r0,[sp,#0x1c]
001eb0  f7fffffe          BL       __aeabi_frsub
001eb4  4601              MOV      r1,r0
001eb6  f8dd0b08          LDR      r0,[sp,#0xb08]
001eba  eb000040          ADD      r0,r0,r0,LSL #1
001ebe  1c40              ADDS     r0,r0,#1
001ec0  aaaa              ADD      r2,sp,#0x2a8
001ec2  f8421020          STR      r1,[r2,r0,LSL #2]
;;;1097           Y[2 + 3 * i] = (B[r3 + 3 * i] - Y[3 * i] * b_O[r3]) - Y[1 + 3 * i] *
001ec6  98cf              LDR      r0,[sp,#0x33c]
001ec8  1cc0              ADDS     r0,r0,#3
001eca  f60d2168          ADD      r1,sp,#0xa68
001ece  f8511020          LDR      r1,[r1,r0,LSL #2]
001ed2  9105              STR      r1,[sp,#0x14]
001ed4  f8dd0b08          LDR      r0,[sp,#0xb08]
001ed8  eb000040          ADD      r0,r0,r0,LSL #1
001edc  1c40              ADDS     r0,r0,#1
001ede  a9aa              ADD      r1,sp,#0x2a8
001ee0  f8511020          LDR      r1,[r1,r0,LSL #2]
001ee4  9104              STR      r1,[sp,#0x10]
001ee6  e9dd0104          LDRD     r0,r1,[sp,#0x10]
001eea  f7fffffe          BL       __aeabi_fmul
001eee  f60d2168          ADD      r1,sp,#0xa68
001ef2  9007              STR      r0,[sp,#0x1c]
001ef4  98cf              LDR      r0,[sp,#0x33c]
001ef6  f8511020          LDR      r1,[r1,r0,LSL #2]
001efa  9104              STR      r1,[sp,#0x10]
001efc  f8dd0b08          LDR      r0,[sp,#0xb08]
001f00  eb000040          ADD      r0,r0,r0,LSL #1
001f04  a9aa              ADD      r1,sp,#0x2a8
001f06  f8511020          LDR      r1,[r1,r0,LSL #2]
001f0a  9103              STR      r1,[sp,#0xc]
001f0c  e9dd0103          LDRD     r0,r1,[sp,#0xc]
001f10  f7fffffe          BL       __aeabi_fmul
001f14  9005              STR      r0,[sp,#0x14]
001f16  2203              MOVS     r2,#3
001f18  f8dd1b08          LDR      r1,[sp,#0xb08]
001f1c  98cf              LDR      r0,[sp,#0x33c]
001f1e  fb020001          MLA      r0,r2,r1,r0
001f22  a9d0              ADD      r1,sp,#0x340
001f24  f8510020          LDR      r0,[r1,r0,LSL #2]
001f28  4601              MOV      r1,r0
001f2a  9004              STR      r0,[sp,#0x10]
001f2c  9805              LDR      r0,[sp,#0x14]
001f2e  f7fffffe          BL       __aeabi_frsub
001f32  9006              STR      r0,[sp,#0x18]
001f34  9907              LDR      r1,[sp,#0x1c]
001f36  f7fffffe          BL       __aeabi_fsub
001f3a  4601              MOV      r1,r0
001f3c  f8dd0b08          LDR      r0,[sp,#0xb08]
001f40  eb000040          ADD      r0,r0,r0,LSL #1
001f44  1c80              ADDS     r0,r0,#2
001f46  aaaa              ADD      r2,sp,#0x2a8
001f48  f8421020          STR      r1,[r2,r0,LSL #2]
;;;1098             b_O[3 + r3];
;;;1099           Y[2 + 3 * i] /= b_O[6 + r3];
001f4c  98cf              LDR      r0,[sp,#0x33c]
001f4e  1d80              ADDS     r0,r0,#6
001f50  f60d2168          ADD      r1,sp,#0xa68
001f54  f8511020          LDR      r1,[r1,r0,LSL #2]
001f58  9107              STR      r1,[sp,#0x1c]
001f5a  f8dd0b08          LDR      r0,[sp,#0xb08]
001f5e  eb000040          ADD      r0,r0,r0,LSL #1
001f62  1c80              ADDS     r0,r0,#2
001f64  a9aa              ADD      r1,sp,#0x2a8
001f66  f8511020          LDR      r1,[r1,r0,LSL #2]
001f6a  9106              STR      r1,[sp,#0x18]
001f6c  e9dd0106          LDRD     r0,r1,[sp,#0x18]
001f70  f7fffffe          BL       __aeabi_fdiv
001f74  4601              MOV      r1,r0
001f76  f8dd0b08          LDR      r0,[sp,#0xb08]
001f7a  eb000040          ADD      r0,r0,r0,LSL #1
001f7e  1c80              ADDS     r0,r0,#2
001f80  aaaa              ADD      r2,sp,#0x2a8
001f82  f8421020          STR      r1,[r2,r0,LSL #2]
;;;1100           Y[3 * i] -= Y[2 + 3 * i] * b_O[6 + r1];
001f86  f8dd0a54          LDR      r0,[sp,#0xa54]
001f8a  1d80              ADDS     r0,r0,#6
001f8c  f60d2168          ADD      r1,sp,#0xa68
001f90  f8511020          LDR      r1,[r1,r0,LSL #2]
001f94  9106              STR      r1,[sp,#0x18]
001f96  f8dd0b08          LDR      r0,[sp,#0xb08]
001f9a  eb000040          ADD      r0,r0,r0,LSL #1
001f9e  1c80              ADDS     r0,r0,#2
001fa0  a9aa              ADD      r1,sp,#0x2a8
001fa2  f8511020          LDR      r1,[r1,r0,LSL #2]
001fa6  9105              STR      r1,[sp,#0x14]
001fa8  e9dd0105          LDRD     r0,r1,[sp,#0x14]
001fac  f7fffffe          BL       __aeabi_fmul
001fb0  9007              STR      r0,[sp,#0x1c]
001fb2  f8dd0b08          LDR      r0,[sp,#0xb08]
001fb6  eb000040          ADD      r0,r0,r0,LSL #1
001fba  a9aa              ADD      r1,sp,#0x2a8
001fbc  f8510020          LDR      r0,[r1,r0,LSL #2]
001fc0  4601              MOV      r1,r0
001fc2  9006              STR      r0,[sp,#0x18]
001fc4  9807              LDR      r0,[sp,#0x1c]
001fc6  f7fffffe          BL       __aeabi_frsub
001fca  4601              MOV      r1,r0
001fcc  f8dd0b08          LDR      r0,[sp,#0xb08]
001fd0  eb000040          ADD      r0,r0,r0,LSL #1
001fd4  aaaa              ADD      r2,sp,#0x2a8
001fd6  f8421020          STR      r1,[r2,r0,LSL #2]
;;;1101           Y[1 + 3 * i] -= Y[2 + 3 * i] * b_O[6 + r2];
001fda  f8dd0af8          LDR      r0,[sp,#0xaf8]
001fde  1d80              ADDS     r0,r0,#6
001fe0  f60d2168          ADD      r1,sp,#0xa68
001fe4  f8511020          LDR      r1,[r1,r0,LSL #2]
001fe8  9106              STR      r1,[sp,#0x18]
001fea  f8dd0b08          LDR      r0,[sp,#0xb08]
001fee  eb000040          ADD      r0,r0,r0,LSL #1
001ff2  1c80              ADDS     r0,r0,#2
001ff4  a9aa              ADD      r1,sp,#0x2a8
001ff6  f8511020          LDR      r1,[r1,r0,LSL #2]
001ffa  9105              STR      r1,[sp,#0x14]
001ffc  e9dd0105          LDRD     r0,r1,[sp,#0x14]
002000  f7fffffe          BL       __aeabi_fmul
002004  9007              STR      r0,[sp,#0x1c]
002006  f8dd0b08          LDR      r0,[sp,#0xb08]
00200a  eb000040          ADD      r0,r0,r0,LSL #1
00200e  1c40              ADDS     r0,r0,#1
002010  a9aa              ADD      r1,sp,#0x2a8
002012  f8510020          LDR      r0,[r1,r0,LSL #2]
002016  4601              MOV      r1,r0
002018  9006              STR      r0,[sp,#0x18]
00201a  9807              LDR      r0,[sp,#0x1c]
00201c  f7fffffe          BL       __aeabi_frsub
002020  4601              MOV      r1,r0
002022  f8dd0b08          LDR      r0,[sp,#0xb08]
002026  eb000040          ADD      r0,r0,r0,LSL #1
00202a  1c40              ADDS     r0,r0,#1
00202c  aaaa              ADD      r2,sp,#0x2a8
00202e  f8421020          STR      r1,[r2,r0,LSL #2]
;;;1102           Y[1 + 3 * i] /= b_O[3 + r2];
002032  f8dd0af8          LDR      r0,[sp,#0xaf8]
002036  1cc0              ADDS     r0,r0,#3
002038  f60d2168          ADD      r1,sp,#0xa68
00203c  f8511020          LDR      r1,[r1,r0,LSL #2]
002040  9107              STR      r1,[sp,#0x1c]
002042  f8dd0b08          LDR      r0,[sp,#0xb08]
002046  eb000040          ADD      r0,r0,r0,LSL #1
00204a  1c40              ADDS     r0,r0,#1
00204c  a9aa              ADD      r1,sp,#0x2a8
00204e  f8511020          LDR      r1,[r1,r0,LSL #2]
002052  9106              STR      r1,[sp,#0x18]
002054  e9dd0106          LDRD     r0,r1,[sp,#0x18]
002058  f7fffffe          BL       __aeabi_fdiv
00205c  4601              MOV      r1,r0
00205e  f8dd0b08          LDR      r0,[sp,#0xb08]
002062  eb000040          ADD      r0,r0,r0,LSL #1
002066  1c40              ADDS     r0,r0,#1
002068  aaaa              ADD      r2,sp,#0x2a8
00206a  f8421020          STR      r1,[r2,r0,LSL #2]
;;;1103           Y[3 * i] -= Y[1 + 3 * i] * b_O[3 + r1];
00206e  f8dd0a54          LDR      r0,[sp,#0xa54]
002072  1cc0              ADDS     r0,r0,#3
002074  f60d2168          ADD      r1,sp,#0xa68
002078  f8511020          LDR      r1,[r1,r0,LSL #2]
00207c  9106              STR      r1,[sp,#0x18]
00207e  f8dd0b08          LDR      r0,[sp,#0xb08]
002082  eb000040          ADD      r0,r0,r0,LSL #1
002086  1c40              ADDS     r0,r0,#1
002088  a9aa              ADD      r1,sp,#0x2a8
00208a  f8511020          LDR      r1,[r1,r0,LSL #2]
00208e  9105              STR      r1,[sp,#0x14]
002090  e9dd0105          LDRD     r0,r1,[sp,#0x14]
002094  f7fffffe          BL       __aeabi_fmul
002098  9007              STR      r0,[sp,#0x1c]
00209a  f8dd0b08          LDR      r0,[sp,#0xb08]
00209e  eb000040          ADD      r0,r0,r0,LSL #1
0020a2  a9aa              ADD      r1,sp,#0x2a8
0020a4  f8510020          LDR      r0,[r1,r0,LSL #2]
0020a8  4601              MOV      r1,r0
0020aa  9006              STR      r0,[sp,#0x18]
0020ac  9807              LDR      r0,[sp,#0x1c]
0020ae  f7fffffe          BL       __aeabi_frsub
0020b2  4601              MOV      r1,r0
0020b4  f8dd0b08          LDR      r0,[sp,#0xb08]
0020b8  eb000040          ADD      r0,r0,r0,LSL #1
0020bc  aaaa              ADD      r2,sp,#0x2a8
0020be  f8421020          STR      r1,[r2,r0,LSL #2]
;;;1104           Y[3 * i] /= b_O[r1];
0020c2  f60d2168          ADD      r1,sp,#0xa68
0020c6  f8dd0a54          LDR      r0,[sp,#0xa54]
0020ca  f8511020          LDR      r1,[r1,r0,LSL #2]
0020ce  9107              STR      r1,[sp,#0x1c]
0020d0  f8dd0b08          LDR      r0,[sp,#0xb08]
0020d4  e000              B        |L1.8408|
                  |L1.8406|
0020d6  e1cd              B        |L1.9332|
                  |L1.8408|
0020d8  eb000040          ADD      r0,r0,r0,LSL #1
0020dc  a9aa              ADD      r1,sp,#0x2a8
0020de  f8511020          LDR      r1,[r1,r0,LSL #2]
0020e2  9106              STR      r1,[sp,#0x18]
0020e4  e9dd0106          LDRD     r0,r1,[sp,#0x18]
0020e8  f7fffffe          BL       __aeabi_fdiv
0020ec  4601              MOV      r1,r0
0020ee  f8dd0b08          LDR      r0,[sp,#0xb08]
0020f2  eb000040          ADD      r0,r0,r0,LSL #1
0020f6  aaaa              ADD      r2,sp,#0x2a8
0020f8  f8421020          STR      r1,[r2,r0,LSL #2]
0020fc  f8dd0b08          LDR      r0,[sp,#0xb08]        ;1094
002100  1c40              ADDS     r0,r0,#1              ;1094
002102  f8cd0b08          STR      r0,[sp,#0xb08]        ;1094
                  |L1.8454|
002106  f8dd0b08          LDR      r0,[sp,#0xb08]        ;1094
00210a  280c              CMP      r0,#0xc               ;1094
00210c  f6ffae9e          BLT      |L1.7756|
;;;1105         }
;;;1106   
;;;1107         for (r2 = 0; r2 < 3; r2++) {
002110  2000              MOVS     r0,#0
002112  f8cd0af8          STR      r0,[sp,#0xaf8]
002116  e025              B        |L1.8548|
                  |L1.8472|
;;;1108           for (i = 0; i < 12; i++) {
002118  2000              MOVS     r0,#0
00211a  f8cd0b08          STR      r0,[sp,#0xb08]
00211e  e018              B        |L1.8530|
                  |L1.8480|
;;;1109             b_S_k[i + 12 * r2] = Y[r2 + 3 * i];
002120  2203              MOVS     r2,#3
002122  f8dd1af8          LDR      r1,[sp,#0xaf8]
002126  f8dd0b08          LDR      r0,[sp,#0xb08]
00212a  fb021000          MLA      r0,r2,r0,r1
00212e  a9aa              ADD      r1,sp,#0x2a8
002130  f8512020          LDR      r2,[r1,r0,LSL #2]
002134  230c              MOVS     r3,#0xc
002136  f8dd1b08          LDR      r1,[sp,#0xb08]
00213a  f8dd0af8          LDR      r0,[sp,#0xaf8]
00213e  fb031000          MLA      r0,r3,r0,r1
002142  a9f7              ADD      r1,sp,#0x3dc
002144  f8412020          STR      r2,[r1,r0,LSL #2]
002148  f8dd0b08          LDR      r0,[sp,#0xb08]        ;1108
00214c  1c40              ADDS     r0,r0,#1              ;1108
00214e  f8cd0b08          STR      r0,[sp,#0xb08]        ;1108
                  |L1.8530|
002152  f8dd0b08          LDR      r0,[sp,#0xb08]        ;1108
002156  280c              CMP      r0,#0xc               ;1108
002158  dbe2              BLT      |L1.8480|
00215a  f8dd0af8          LDR      r0,[sp,#0xaf8]        ;1107
00215e  1c40              ADDS     r0,r0,#1              ;1107
002160  f8cd0af8          STR      r0,[sp,#0xaf8]        ;1107
                  |L1.8548|
002164  f8dd0af8          LDR      r0,[sp,#0xaf8]        ;1107
002168  2803              CMP      r0,#3                 ;1107
00216a  dbd5              BLT      |L1.8472|
;;;1110           }
;;;1111         }
;;;1112   
;;;1113         /* 'AttitudeEKF:215' x_apo=x_apr+K_k*y_k; */
;;;1114         for (r2 = 0; r2 < 3; r2++) {
00216c  2000              MOVS     r0,#0
00216e  f8cd0af8          STR      r0,[sp,#0xaf8]
002172  e046              B        |L1.8706|
                  |L1.8564|
;;;1115           maxval = 0.0F;
002174  2100              MOVS     r1,#0
002176  f8cd1a58          STR      r1,[sp,#0xa58]
;;;1116           for (i = 0; i < 12; i++) {
00217a  f8cd1b08          STR      r1,[sp,#0xb08]
00217e  e024              B        |L1.8650|
                  |L1.8576|
;;;1117             maxval += (float)c_a[r2 + 3 * i] * x_apr[i];
002180  2203              MOVS     r2,#3
002182  f8dd1af8          LDR      r1,[sp,#0xaf8]
002186  f8dd0b08          LDR      r0,[sp,#0xb08]
00218a  fb021000          MLA      r0,r2,r0,r1
00218e  49fa              LDR      r1,|L1.9592|
002190  5609              LDRSB    r1,[r1,r0]
002192  4608              MOV      r0,r1
002194  9105              STR      r1,[sp,#0x14]
002196  f7fffffe          BL       __aeabi_i2f
00219a  f60d12f4          ADD      r2,sp,#0x9f4
00219e  9006              STR      r0,[sp,#0x18]
0021a0  f8dd0b08          LDR      r0,[sp,#0xb08]
0021a4  f8520020          LDR      r0,[r2,r0,LSL #2]
0021a8  4601              MOV      r1,r0
0021aa  9005              STR      r0,[sp,#0x14]
0021ac  9806              LDR      r0,[sp,#0x18]
0021ae  f7fffffe          BL       __aeabi_fmul
0021b2  9007              STR      r0,[sp,#0x1c]
0021b4  f8dd1a58          LDR      r1,[sp,#0xa58]
0021b8  f7fffffe          BL       __aeabi_fadd
0021bc  f8cd0a58          STR      r0,[sp,#0xa58]
0021c0  f8dd0b08          LDR      r0,[sp,#0xb08]        ;1116
0021c4  1c40              ADDS     r0,r0,#1              ;1116
0021c6  f8cd0b08          STR      r0,[sp,#0xb08]        ;1116
                  |L1.8650|
0021ca  f8dd0b08          LDR      r0,[sp,#0xb08]        ;1116
0021ce  280c              CMP      r0,#0xc               ;1116
0021d0  dbd6              BLT      |L1.8576|
;;;1118           }
;;;1119   
;;;1120           b_muk[r2] = z[r2] - maxval;
0021d2  f8dd1b20          LDR      r1,[sp,#0xb20]
0021d6  f8dd0af8          LDR      r0,[sp,#0xaf8]
0021da  f8511020          LDR      r1,[r1,r0,LSL #2]
0021de  9107              STR      r1,[sp,#0x1c]
0021e0  f8dd1a58          LDR      r1,[sp,#0xa58]
0021e4  9807              LDR      r0,[sp,#0x1c]
0021e6  f7fffffe          BL       __aeabi_fsub
0021ea  4601              MOV      r1,r0
0021ec  f60d22d4          ADD      r2,sp,#0xad4
0021f0  f8dd0af8          LDR      r0,[sp,#0xaf8]
0021f4  f8421020          STR      r1,[r2,r0,LSL #2]
0021f8  f8dd0af8          LDR      r0,[sp,#0xaf8]        ;1114
0021fc  1c40              ADDS     r0,r0,#1              ;1114
0021fe  f8cd0af8          STR      r0,[sp,#0xaf8]        ;1114
                  |L1.8706|
002202  f8dd0af8          LDR      r0,[sp,#0xaf8]        ;1114
002206  2803              CMP      r0,#3                 ;1114
002208  dbb4              BLT      |L1.8564|
;;;1121         }
;;;1122   
;;;1123         for (r2 = 0; r2 < 12; r2++) {
00220a  2000              MOVS     r0,#0
00220c  f8cd0af8          STR      r0,[sp,#0xaf8]
002210  e040              B        |L1.8852|
                  |L1.8722|
;;;1124           maxval = 0.0F;
002212  2100              MOVS     r1,#0
002214  f8cd1a58          STR      r1,[sp,#0xa58]
;;;1125           for (i = 0; i < 3; i++) {
002218  f8cd1b08          STR      r1,[sp,#0xb08]
00221c  e01f              B        |L1.8798|
                  |L1.8734|
;;;1126             maxval += b_S_k[r2 + 12 * i] * b_muk[i];
00221e  f60d21d4          ADD      r1,sp,#0xad4
002222  f8dd0b08          LDR      r0,[sp,#0xb08]
002226  f8511020          LDR      r1,[r1,r0,LSL #2]
00222a  9106              STR      r1,[sp,#0x18]
00222c  220c              MOVS     r2,#0xc
00222e  f8dd1af8          LDR      r1,[sp,#0xaf8]
002232  fb021000          MLA      r0,r2,r0,r1
002236  a9f7              ADD      r1,sp,#0x3dc
002238  f8511020          LDR      r1,[r1,r0,LSL #2]
00223c  9105              STR      r1,[sp,#0x14]
00223e  e9dd0105          LDRD     r0,r1,[sp,#0x14]
002242  f7fffffe          BL       __aeabi_fmul
002246  9007              STR      r0,[sp,#0x1c]
002248  f8dd1a58          LDR      r1,[sp,#0xa58]
00224c  f7fffffe          BL       __aeabi_fadd
002250  f8cd0a58          STR      r0,[sp,#0xa58]
002254  f8dd0b08          LDR      r0,[sp,#0xb08]        ;1125
002258  1c40              ADDS     r0,r0,#1              ;1125
00225a  f8cd0b08          STR      r0,[sp,#0xb08]        ;1125
                  |L1.8798|
00225e  f8dd0b08          LDR      r0,[sp,#0xb08]        ;1125
002262  2803              CMP      r0,#3                 ;1125
002264  dbdb              BLT      |L1.8734|
;;;1127           }
;;;1128   
;;;1129           x_apo[r2] = x_apr[r2] + maxval;
002266  f60d11f4          ADD      r1,sp,#0x9f4
00226a  f8dd0af8          LDR      r0,[sp,#0xaf8]
00226e  f8511020          LDR      r1,[r1,r0,LSL #2]
002272  9107              STR      r1,[sp,#0x1c]
002274  f8dd1a58          LDR      r1,[sp,#0xa58]
002278  9807              LDR      r0,[sp,#0x1c]
00227a  f7fffffe          BL       __aeabi_fadd
00227e  4601              MOV      r1,r0
002280  4abe              LDR      r2,|L1.9596|
002282  f8dd0af8          LDR      r0,[sp,#0xaf8]
002286  f8421020          STR      r1,[r2,r0,LSL #2]
00228a  f8dd0af8          LDR      r0,[sp,#0xaf8]        ;1123
00228e  1c40              ADDS     r0,r0,#1              ;1123
002290  f8cd0af8          STR      r0,[sp,#0xaf8]        ;1123
                  |L1.8852|
002294  f8dd0af8          LDR      r0,[sp,#0xaf8]        ;1123
002298  280c              CMP      r0,#0xc               ;1123
00229a  dbba              BLT      |L1.8722|
;;;1130         }
;;;1131   
;;;1132         /* 'AttitudeEKF:216' P_apo=(eye(12)-K_k*H_k(1:3,1:12))*P_apr; */
;;;1133         memset(&I[0], 0, 144U * sizeof(signed char));
00229c  2190              MOVS     r1,#0x90
00229e  f60d1064          ADD      r0,sp,#0x964
0022a2  f7fffffe          BL       __aeabi_memclr4
;;;1134         for (i = 0; i < 12; i++) {
0022a6  2000              MOVS     r0,#0
0022a8  f8cd0b08          STR      r0,[sp,#0xb08]
0022ac  e00d              B        |L1.8906|
                  |L1.8878|
;;;1135           I[i + 12 * i] = 1;
0022ae  2201              MOVS     r2,#1
0022b0  210c              MOVS     r1,#0xc
0022b2  f8dd0b08          LDR      r0,[sp,#0xb08]
0022b6  fb010000          MLA      r0,r1,r0,r0
0022ba  f60d1164          ADD      r1,sp,#0x964
0022be  540a              STRB     r2,[r1,r0]
0022c0  f8dd0b08          LDR      r0,[sp,#0xb08]        ;1134
0022c4  1c40              ADDS     r0,r0,#1              ;1134
0022c6  f8cd0b08          STR      r0,[sp,#0xb08]        ;1134
                  |L1.8906|
0022ca  f8dd0b08          LDR      r0,[sp,#0xb08]        ;1134
0022ce  280c              CMP      r0,#0xc               ;1134
0022d0  dbed              BLT      |L1.8878|
;;;1136         }
;;;1137   
;;;1138         for (r2 = 0; r2 < 12; r2++) {
0022d2  2000              MOVS     r0,#0
0022d4  f8cd0af8          STR      r0,[sp,#0xaf8]
0022d8  e061              B        |L1.9118|
                  |L1.8922|
;;;1139           for (i = 0; i < 12; i++) {
0022da  2000              MOVS     r0,#0
0022dc  f8cd0b08          STR      r0,[sp,#0xb08]
0022e0  e054              B        |L1.9100|
                  |L1.8930|
;;;1140             maxval = 0.0F;
0022e2  2100              MOVS     r1,#0
0022e4  f8cd1a58          STR      r1,[sp,#0xa58]
;;;1141             for (r1 = 0; r1 < 3; r1++) {
0022e8  f8cd1a54          STR      r1,[sp,#0xa54]
0022ec  e027              B        |L1.9022|
                  |L1.8942|
;;;1142               maxval += b_S_k[r2 + 12 * r1] * (float)c_a[r1 + 3 * i];
0022ee  2203              MOVS     r2,#3
0022f0  f8dd1a54          LDR      r1,[sp,#0xa54]
0022f4  f8dd0b08          LDR      r0,[sp,#0xb08]
0022f8  fb021000          MLA      r0,r2,r0,r1
0022fc  499e              LDR      r1,|L1.9592|
0022fe  5609              LDRSB    r1,[r1,r0]
002300  4608              MOV      r0,r1
002302  9105              STR      r1,[sp,#0x14]
002304  f7fffffe          BL       __aeabi_i2f
002308  9006              STR      r0,[sp,#0x18]
00230a  220c              MOVS     r2,#0xc
00230c  f8dd1af8          LDR      r1,[sp,#0xaf8]
002310  f8dd0a54          LDR      r0,[sp,#0xa54]
002314  fb021000          MLA      r0,r2,r0,r1
002318  a9f7              ADD      r1,sp,#0x3dc
00231a  f8511020          LDR      r1,[r1,r0,LSL #2]
00231e  9105              STR      r1,[sp,#0x14]
002320  9806              LDR      r0,[sp,#0x18]
002322  f7fffffe          BL       __aeabi_fmul
002326  9007              STR      r0,[sp,#0x1c]
002328  f8dd1a58          LDR      r1,[sp,#0xa58]
00232c  f7fffffe          BL       __aeabi_fadd
002330  f8cd0a58          STR      r0,[sp,#0xa58]
002334  f8dd0a54          LDR      r0,[sp,#0xa54]        ;1141
002338  1c40              ADDS     r0,r0,#1              ;1141
00233a  f8cd0a54          STR      r0,[sp,#0xa54]        ;1141
                  |L1.9022|
00233e  f8dd0a54          LDR      r0,[sp,#0xa54]        ;1141
002342  2803              CMP      r0,#3                 ;1141
002344  dbd3              BLT      |L1.8942|
;;;1143             }
;;;1144   
;;;1145             A_lin[r2 + 12 * i] = (float)I[r2 + 12 * i] - maxval;
002346  220c              MOVS     r2,#0xc
002348  f8dd1af8          LDR      r1,[sp,#0xaf8]
00234c  f8dd0b08          LDR      r0,[sp,#0xb08]
002350  fb021000          MLA      r0,r2,r0,r1
002354  f60d1164          ADD      r1,sp,#0x964
002358  5609              LDRSB    r1,[r1,r0]
00235a  4608              MOV      r0,r1
00235c  9106              STR      r1,[sp,#0x18]
00235e  f7fffffe          BL       __aeabi_i2f
002362  9007              STR      r0,[sp,#0x1c]
002364  f8dd1a58          LDR      r1,[sp,#0xa58]
002368  f7fffffe          BL       __aeabi_fsub
00236c  4601              MOV      r1,r0
00236e  230c              MOVS     r3,#0xc
002370  f8dd2af8          LDR      r2,[sp,#0xaf8]
002374  f8dd0b08          LDR      r0,[sp,#0xb08]
002378  fb032000          MLA      r0,r3,r0,r2
00237c  4a80              LDR      r2,|L1.9600|
00237e  f8421020          STR      r1,[r2,r0,LSL #2]
002382  f8dd0b08          LDR      r0,[sp,#0xb08]        ;1139
002386  1c40              ADDS     r0,r0,#1              ;1139
002388  f8cd0b08          STR      r0,[sp,#0xb08]        ;1139
                  |L1.9100|
00238c  f8dd0b08          LDR      r0,[sp,#0xb08]        ;1139
002390  280c              CMP      r0,#0xc               ;1139
002392  dba6              BLT      |L1.8930|
002394  f8dd0af8          LDR      r0,[sp,#0xaf8]        ;1138
002398  1c40              ADDS     r0,r0,#1              ;1138
00239a  f8cd0af8          STR      r0,[sp,#0xaf8]        ;1138
                  |L1.9118|
00239e  f8dd0af8          LDR      r0,[sp,#0xaf8]        ;1138
0023a2  280c              CMP      r0,#0xc               ;1138
0023a4  db99              BLT      |L1.8922|
;;;1146           }
;;;1147         }
;;;1148   
;;;1149         for (r2 = 0; r2 < 12; r2++) {
0023a6  2000              MOVS     r0,#0
0023a8  f8cd0af8          STR      r0,[sp,#0xaf8]
0023ac  e05d              B        |L1.9322|
                  |L1.9134|
;;;1150           for (i = 0; i < 12; i++) {
0023ae  2000              MOVS     r0,#0
0023b0  f8cd0b08          STR      r0,[sp,#0xb08]
0023b4  e050              B        |L1.9304|
                  |L1.9142|
;;;1151             P_apo[r2 + 12 * i] = 0.0F;
0023b6  2200              MOVS     r2,#0
0023b8  230c              MOVS     r3,#0xc
0023ba  f8dd1af8          LDR      r1,[sp,#0xaf8]
0023be  f8dd0b08          LDR      r0,[sp,#0xb08]
0023c2  fb031000          MLA      r0,r3,r0,r1
0023c6  496f              LDR      r1,|L1.9604|
0023c8  f8412020          STR      r2,[r1,r0,LSL #2]
;;;1152             for (r1 = 0; r1 < 12; r1++) {
0023cc  2100              MOVS     r1,#0
0023ce  f8cd1a54          STR      r1,[sp,#0xa54]
0023d2  e038              B        |L1.9286|
                  |L1.9172|
;;;1153               P_apo[r2 + 12 * i] += A_lin[r2 + 12 * r1] * P_apr[r1 + 12 * i];
0023d4  220c              MOVS     r2,#0xc
0023d6  f8dd1a54          LDR      r1,[sp,#0xa54]
0023da  f8dd0b08          LDR      r0,[sp,#0xb08]
0023de  fb021000          MLA      r0,r2,r0,r1
0023e2  4969              LDR      r1,|L1.9608|
0023e4  f8511020          LDR      r1,[r1,r0,LSL #2]
0023e8  9106              STR      r1,[sp,#0x18]
0023ea  f8dd1af8          LDR      r1,[sp,#0xaf8]
0023ee  f8dd0a54          LDR      r0,[sp,#0xa54]
0023f2  fb021000          MLA      r0,r2,r0,r1
0023f6  4962              LDR      r1,|L1.9600|
0023f8  f8511020          LDR      r1,[r1,r0,LSL #2]
0023fc  9105              STR      r1,[sp,#0x14]
0023fe  e9dd0105          LDRD     r0,r1,[sp,#0x14]
002402  f7fffffe          BL       __aeabi_fmul
002406  9007              STR      r0,[sp,#0x1c]
002408  220c              MOVS     r2,#0xc
00240a  f8dd1b08          LDR      r1,[sp,#0xb08]
00240e  f8dd0af8          LDR      r0,[sp,#0xaf8]
002412  fb020001          MLA      r0,r2,r1,r0
002416  495b              LDR      r1,|L1.9604|
002418  f8510020          LDR      r0,[r1,r0,LSL #2]
00241c  4601              MOV      r1,r0
00241e  9006              STR      r0,[sp,#0x18]
002420  9807              LDR      r0,[sp,#0x1c]
002422  f7fffffe          BL       __aeabi_fadd
002426  4601              MOV      r1,r0
002428  230c              MOVS     r3,#0xc
00242a  f8dd2af8          LDR      r2,[sp,#0xaf8]
00242e  f8dd0b08          LDR      r0,[sp,#0xb08]
002432  fb032000          MLA      r0,r3,r0,r2
002436  4a53              LDR      r2,|L1.9604|
002438  f8421020          STR      r1,[r2,r0,LSL #2]
00243c  f8dd0a54          LDR      r0,[sp,#0xa54]        ;1152
002440  1c40              ADDS     r0,r0,#1              ;1152
002442  f8cd0a54          STR      r0,[sp,#0xa54]        ;1152
                  |L1.9286|
002446  f8dd0a54          LDR      r0,[sp,#0xa54]        ;1152
00244a  280c              CMP      r0,#0xc               ;1152
00244c  dbc2              BLT      |L1.9172|
00244e  f8dd0b08          LDR      r0,[sp,#0xb08]        ;1150
002452  1c40              ADDS     r0,r0,#1              ;1150
002454  f8cd0b08          STR      r0,[sp,#0xb08]        ;1150
                  |L1.9304|
002458  f8dd0b08          LDR      r0,[sp,#0xb08]        ;1150
00245c  280c              CMP      r0,#0xc               ;1150
00245e  dbaa              BLT      |L1.9142|
002460  f8dd0af8          LDR      r0,[sp,#0xaf8]        ;1149
002464  1c40              ADDS     r0,r0,#1              ;1149
002466  f8cd0af8          STR      r0,[sp,#0xaf8]        ;1149
                  |L1.9322|
00246a  f8dd0af8          LDR      r0,[sp,#0xaf8]        ;1149
00246e  280c              CMP      r0,#0xc               ;1149
002470  db9d              BLT      |L1.9134|
002472  e323              B        |L1.10940|
                  |L1.9332|
;;;1154             }
;;;1155           }
;;;1156         }
;;;1157       } else {
;;;1158         /* 'AttitudeEKF:217' else */
;;;1159         /* 'AttitudeEKF:218' if  zFlag(1)==1&&zFlag(2)==1&&zFlag(3)==0 */
;;;1160         if ((zFlag[0] == 1) && (zFlag[1] == 1) && (zFlag[2] == 0)) {
002474  f8dd0b14          LDR      r0,[sp,#0xb14]
002478  7800              LDRB     r0,[r0,#0]
00247a  2801              CMP      r0,#1
                  |L1.9340|
00247c  d17b              BNE      |L1.9590|
00247e  f8dd0b14          LDR      r0,[sp,#0xb14]
002482  7840              LDRB     r0,[r0,#1]
002484  2801              CMP      r0,#1
002486  d1f9              BNE      |L1.9340|
002488  f8dd0b14          LDR      r0,[sp,#0xb14]
00248c  7880              LDRB     r0,[r0,#2]
00248e  2800              CMP      r0,#0
002490  d1f4              BNE      |L1.9340|
;;;1161           /*              R=[r_gyro,0,0,0,0,0; */
;;;1162           /*                  0,r_gyro,0,0,0,0; */
;;;1163           /*                  0,0,r_gyro,0,0,0; */
;;;1164           /*                  0,0,0,r_accel,0,0; */
;;;1165           /*                  0,0,0,0,r_accel,0; */
;;;1166           /*                  0,0,0,0,0,r_accel]; */
;;;1167           /* 'AttitudeEKF:227' R_v=[r_gyro,r_gyro,r_gyro,r_accel,r_accel,r_accel]; */
;;;1168           /* observation matrix */
;;;1169           /* 'AttitudeEKF:230' H_k=[  E,     Z,      Z,    Z; */
;;;1170           /* 'AttitudeEKF:231'                 Z,     Z,      E,    Z]; */
;;;1171           /* 'AttitudeEKF:233' y_k=z(1:6)-H_k(1:6,1:12)*x_apr; */
;;;1172           /*  S_k=H_k(1:6,1:12)*P_apr*H_k(1:6,1:12)'+R(1:6,1:6); */
;;;1173           /* 'AttitudeEKF:236' S_k=H_k(1:6,1:12)*P_apr*H_k(1:6,1:12)'; */
;;;1174           for (r2 = 0; r2 < 6; r2++) {
002492  f8cd0af8          STR      r0,[sp,#0xaf8]
002496  e0c9              B        |L1.9772|
                  |L1.9368|
;;;1175             for (i = 0; i < 12; i++) {
002498  2000              MOVS     r0,#0
00249a  f8cd0b08          STR      r0,[sp,#0xb08]
00249e  e053              B        |L1.9544|
                  |L1.9376|
;;;1176               d_a[r2 + 6 * i] = 0.0F;
0024a0  2200              MOVS     r2,#0
0024a2  2306              MOVS     r3,#6
0024a4  f8dd1af8          LDR      r1,[sp,#0xaf8]
0024a8  f8dd0b08          LDR      r0,[sp,#0xb08]
0024ac  fb031000          MLA      r0,r3,r0,r1
0024b0  a962              ADD      r1,sp,#0x188
0024b2  f8412020          STR      r2,[r1,r0,LSL #2]
;;;1177               for (r1 = 0; r1 < 12; r1++) {
0024b6  2100              MOVS     r1,#0
0024b8  f8cd1a54          STR      r1,[sp,#0xa54]
0024bc  e03b              B        |L1.9526|
                  |L1.9406|
;;;1178                 d_a[r2 + 6 * i] += (float)e_a[r2 + 6 * r1] * P_apr[r1 + 12 * i];
0024be  2206              MOVS     r2,#6
0024c0  f8dd1af8          LDR      r1,[sp,#0xaf8]
0024c4  f8dd0a54          LDR      r0,[sp,#0xa54]
0024c8  fb021000          MLA      r0,r2,r0,r1
0024cc  492f              LDR      r1,|L1.9612|
0024ce  5609              LDRSB    r1,[r1,r0]
0024d0  4608              MOV      r0,r1
0024d2  9105              STR      r1,[sp,#0x14]
0024d4  f7fffffe          BL       __aeabi_i2f
0024d8  9006              STR      r0,[sp,#0x18]
0024da  220c              MOVS     r2,#0xc
0024dc  f8dd1b08          LDR      r1,[sp,#0xb08]
0024e0  f8dd0a54          LDR      r0,[sp,#0xa54]
0024e4  fb020001          MLA      r0,r2,r1,r0
0024e8  4927              LDR      r1,|L1.9608|
0024ea  f8510020          LDR      r0,[r1,r0,LSL #2]
0024ee  4601              MOV      r1,r0
0024f0  9005              STR      r0,[sp,#0x14]
0024f2  9806              LDR      r0,[sp,#0x18]
0024f4  f7fffffe          BL       __aeabi_fmul
0024f8  9007              STR      r0,[sp,#0x1c]
0024fa  2206              MOVS     r2,#6
0024fc  f8dd1af8          LDR      r1,[sp,#0xaf8]
002500  f8dd0b08          LDR      r0,[sp,#0xb08]
002504  fb021000          MLA      r0,r2,r0,r1
002508  a962              ADD      r1,sp,#0x188
00250a  f8511020          LDR      r1,[r1,r0,LSL #2]
00250e  9106              STR      r1,[sp,#0x18]
002510  9807              LDR      r0,[sp,#0x1c]
002512  f7fffffe          BL       __aeabi_fadd
002516  4601              MOV      r1,r0
002518  2306              MOVS     r3,#6
00251a  f8dd2af8          LDR      r2,[sp,#0xaf8]
00251e  f8dd0b08          LDR      r0,[sp,#0xb08]
002522  fb032000          MLA      r0,r3,r0,r2
002526  aa62              ADD      r2,sp,#0x188
002528  f8421020          STR      r1,[r2,r0,LSL #2]
00252c  f8dd0a54          LDR      r0,[sp,#0xa54]        ;1177
002530  1c40              ADDS     r0,r0,#1              ;1177
002532  f8cd0a54          STR      r0,[sp,#0xa54]        ;1177
                  |L1.9526|
002536  f8dd0a54          LDR      r0,[sp,#0xa54]        ;1177
00253a  280c              CMP      r0,#0xc               ;1177
00253c  dbbf              BLT      |L1.9406|
00253e  f8dd0b08          LDR      r0,[sp,#0xb08]        ;1175
002542  1c40              ADDS     r0,r0,#1              ;1175
002544  f8cd0b08          STR      r0,[sp,#0xb08]        ;1175
                  |L1.9544|
002548  f8dd0b08          LDR      r0,[sp,#0xb08]        ;1175
00254c  280c              CMP      r0,#0xc               ;1175
00254e  dba7              BLT      |L1.9376|
;;;1179               }
;;;1180             }
;;;1181   
;;;1182             for (i = 0; i < 6; i++) {
002550  2000              MOVS     r0,#0
002552  f8cd0b08          STR      r0,[sp,#0xb08]
002556  e060              B        |L1.9754|
                  |L1.9560|
;;;1183               b_S_k[r2 + 6 * i] = 0.0F;
002558  2200              MOVS     r2,#0
00255a  2306              MOVS     r3,#6
00255c  f8dd1af8          LDR      r1,[sp,#0xaf8]
002560  f8dd0b08          LDR      r0,[sp,#0xb08]
002564  fb031000          MLA      r0,r3,r0,r1
002568  a9f7              ADD      r1,sp,#0x3dc
00256a  f8412020          STR      r2,[r1,r0,LSL #2]
;;;1184               for (r1 = 0; r1 < 12; r1++) {
00256e  2100              MOVS     r1,#0
002570  f8cd1a54          STR      r1,[sp,#0xa54]
002574  e048              B        |L1.9736|
                  |L1.9590|
002576  e2a2              B        |L1.10942|
                  |L1.9592|
                          DCD      ||c_a||
                  |L1.9596|
                          DCD      x_apo
                  |L1.9600|
                          DCD      A_lin
                  |L1.9604|
                          DCD      P_apo
                  |L1.9608|
                          DCD      P_apr
                  |L1.9612|
                          DCD      e_a
                  |L1.9616|
;;;1185                 b_S_k[r2 + 6 * i] += d_a[r2 + 6 * r1] * (float)c_b[r1 + 12 * i];
002590  220c              MOVS     r2,#0xc
002592  f8dd1a54          LDR      r1,[sp,#0xa54]
002596  f8dd0b08          LDR      r0,[sp,#0xb08]
00259a  fb021000          MLA      r0,r2,r0,r1
00259e  49fe              LDR      r1,|L1.10648|
0025a0  5609              LDRSB    r1,[r1,r0]
0025a2  4608              MOV      r0,r1
0025a4  9105              STR      r1,[sp,#0x14]
0025a6  f7fffffe          BL       __aeabi_i2f
0025aa  9006              STR      r0,[sp,#0x18]
0025ac  2206              MOVS     r2,#6
0025ae  f8dd1af8          LDR      r1,[sp,#0xaf8]
0025b2  f8dd0a54          LDR      r0,[sp,#0xa54]
0025b6  fb021000          MLA      r0,r2,r0,r1
0025ba  a962              ADD      r1,sp,#0x188
0025bc  f8511020          LDR      r1,[r1,r0,LSL #2]
0025c0  9105              STR      r1,[sp,#0x14]
0025c2  9806              LDR      r0,[sp,#0x18]
0025c4  f7fffffe          BL       __aeabi_fmul
0025c8  9007              STR      r0,[sp,#0x1c]
0025ca  2206              MOVS     r2,#6
0025cc  f8dd1b08          LDR      r1,[sp,#0xb08]
0025d0  f8dd0af8          LDR      r0,[sp,#0xaf8]
0025d4  fb020001          MLA      r0,r2,r1,r0
0025d8  a9f7              ADD      r1,sp,#0x3dc
0025da  f8510020          LDR      r0,[r1,r0,LSL #2]
0025de  4601              MOV      r1,r0
0025e0  9006              STR      r0,[sp,#0x18]
0025e2  9807              LDR      r0,[sp,#0x1c]
0025e4  f7fffffe          BL       __aeabi_fadd
0025e8  4601              MOV      r1,r0
0025ea  2306              MOVS     r3,#6
0025ec  f8dd2af8          LDR      r2,[sp,#0xaf8]
0025f0  f8dd0b08          LDR      r0,[sp,#0xb08]
0025f4  fb032000          MLA      r0,r3,r0,r2
0025f8  aaf7              ADD      r2,sp,#0x3dc
0025fa  f8421020          STR      r1,[r2,r0,LSL #2]
0025fe  f8dd0a54          LDR      r0,[sp,#0xa54]        ;1184
002602  1c40              ADDS     r0,r0,#1              ;1184
002604  f8cd0a54          STR      r0,[sp,#0xa54]        ;1184
                  |L1.9736|
002608  f8dd0a54          LDR      r0,[sp,#0xa54]        ;1184
00260c  280c              CMP      r0,#0xc               ;1184
00260e  dbbf              BLT      |L1.9616|
002610  f8dd0b08          LDR      r0,[sp,#0xb08]        ;1182
002614  1c40              ADDS     r0,r0,#1              ;1182
002616  f8cd0b08          STR      r0,[sp,#0xb08]        ;1182
                  |L1.9754|
00261a  f8dd0b08          LDR      r0,[sp,#0xb08]        ;1182
00261e  2806              CMP      r0,#6                 ;1182
002620  db9a              BLT      |L1.9560|
002622  f8dd0af8          LDR      r0,[sp,#0xaf8]        ;1174
002626  1c40              ADDS     r0,r0,#1              ;1174
002628  f8cd0af8          STR      r0,[sp,#0xaf8]        ;1174
                  |L1.9772|
00262c  f8dd0af8          LDR      r0,[sp,#0xaf8]        ;1174
002630  2806              CMP      r0,#6                 ;1174
002632  f6ffaf31          BLT      |L1.9368|
;;;1186               }
;;;1187             }
;;;1188           }
;;;1189   
;;;1190           /* 'AttitudeEKF:237' S_k(1:6+1:end) = S_k(1:6+1:end) + R_v; */
;;;1191           d_r_gyro[0] = r_gyro;
002636  f8dd1b34          LDR      r1,[sp,#0xb34]
00263a  915c              STR      r1,[sp,#0x170]
;;;1192           d_r_gyro[1] = r_gyro;
00263c  f8dd1b34          LDR      r1,[sp,#0xb34]
002640  915d              STR      r1,[sp,#0x174]
;;;1193           d_r_gyro[2] = r_gyro;
002642  f8dd1b34          LDR      r1,[sp,#0xb34]
002646  915e              STR      r1,[sp,#0x178]
;;;1194           d_r_gyro[3] = r_accel;
002648  f8dd1b38          LDR      r1,[sp,#0xb38]
00264c  915f              STR      r1,[sp,#0x17c]
;;;1195           d_r_gyro[4] = r_accel;
00264e  f8dd1b38          LDR      r1,[sp,#0xb38]
002652  9160              STR      r1,[sp,#0x180]
;;;1196           d_r_gyro[5] = r_accel;
002654  f8dd1b38          LDR      r1,[sp,#0xb38]
002658  9161              STR      r1,[sp,#0x184]
;;;1197           for (r2 = 0; r2 < 6; r2++) {
00265a  2100              MOVS     r1,#0
00265c  f8cd1af8          STR      r1,[sp,#0xaf8]
002660  e01a              B        |L1.9880|
                  |L1.9826|
;;;1198             c_S_k[r2] = b_S_k[7 * r2] + d_r_gyro[r2];
002662  a95c              ADD      r1,sp,#0x170
002664  f8dd0af8          LDR      r0,[sp,#0xaf8]
002668  f8511020          LDR      r1,[r1,r0,LSL #2]
00266c  ebc000c0          RSB      r0,r0,r0,LSL #3
002670  9107              STR      r1,[sp,#0x1c]
002672  a9f7              ADD      r1,sp,#0x3dc
002674  f8511020          LDR      r1,[r1,r0,LSL #2]
002678  9106              STR      r1,[sp,#0x18]
00267a  e9dd0106          LDRD     r0,r1,[sp,#0x18]
00267e  f7fffffe          BL       __aeabi_fadd
002682  4601              MOV      r1,r0
002684  aa56              ADD      r2,sp,#0x158
002686  f8dd0af8          LDR      r0,[sp,#0xaf8]
00268a  f8421020          STR      r1,[r2,r0,LSL #2]
00268e  f8dd0af8          LDR      r0,[sp,#0xaf8]        ;1197
002692  1c40              ADDS     r0,r0,#1              ;1197
002694  f8cd0af8          STR      r0,[sp,#0xaf8]        ;1197
                  |L1.9880|
002698  f8dd0af8          LDR      r0,[sp,#0xaf8]        ;1197
00269c  2806              CMP      r0,#6                 ;1197
00269e  dbe0              BLT      |L1.9826|
;;;1199           }
;;;1200   
;;;1201           for (r2 = 0; r2 < 6; r2++) {
0026a0  2000              MOVS     r0,#0
0026a2  f8cd0af8          STR      r0,[sp,#0xaf8]
0026a6  e00e              B        |L1.9926|
                  |L1.9896|
;;;1202             b_S_k[7 * r2] = c_S_k[r2];
0026a8  a956              ADD      r1,sp,#0x158
0026aa  f8dd0af8          LDR      r0,[sp,#0xaf8]
0026ae  f8511020          LDR      r1,[r1,r0,LSL #2]
0026b2  ebc000c0          RSB      r0,r0,r0,LSL #3
0026b6  aaf7              ADD      r2,sp,#0x3dc
0026b8  f8421020          STR      r1,[r2,r0,LSL #2]
0026bc  f8dd0af8          LDR      r0,[sp,#0xaf8]        ;1201
0026c0  1c40              ADDS     r0,r0,#1              ;1201
0026c2  f8cd0af8          STR      r0,[sp,#0xaf8]        ;1201
                  |L1.9926|
0026c6  f8dd0af8          LDR      r0,[sp,#0xaf8]        ;1201
0026ca  2806              CMP      r0,#6                 ;1201
0026cc  dbec              BLT      |L1.9896|
;;;1203           }
;;;1204   
;;;1205           /* 'AttitudeEKF:238' K_k=(P_apr*H_k(1:6,1:12)'/(S_k)); */
;;;1206           for (r2 = 0; r2 < 12; r2++) {
0026ce  2000              MOVS     r0,#0
0026d0  f8cd0af8          STR      r0,[sp,#0xaf8]
0026d4  e060              B        |L1.10136|
                  |L1.9942|
;;;1207             for (i = 0; i < 6; i++) {
0026d6  2000              MOVS     r0,#0
0026d8  f8cd0b08          STR      r0,[sp,#0xb08]
0026dc  e053              B        |L1.10118|
                  |L1.9950|
;;;1208               d_a[r2 + 12 * i] = 0.0F;
0026de  2200              MOVS     r2,#0
0026e0  230c              MOVS     r3,#0xc
0026e2  f8dd1af8          LDR      r1,[sp,#0xaf8]
0026e6  f8dd0b08          LDR      r0,[sp,#0xb08]
0026ea  fb031000          MLA      r0,r3,r0,r1
0026ee  a962              ADD      r1,sp,#0x188
0026f0  f8412020          STR      r2,[r1,r0,LSL #2]
;;;1209               for (r1 = 0; r1 < 12; r1++) {
0026f4  2100              MOVS     r1,#0
0026f6  f8cd1a54          STR      r1,[sp,#0xa54]
0026fa  e03b              B        |L1.10100|
                  |L1.9980|
;;;1210                 d_a[r2 + 12 * i] += P_apr[r2 + 12 * r1] * (float)c_b[r1 + 12 * i];
0026fc  220c              MOVS     r2,#0xc
0026fe  f8dd1a54          LDR      r1,[sp,#0xa54]
002702  f8dd0b08          LDR      r0,[sp,#0xb08]
002706  fb021000          MLA      r0,r2,r0,r1
00270a  49a3              LDR      r1,|L1.10648|
00270c  5609              LDRSB    r1,[r1,r0]
00270e  4608              MOV      r0,r1
002710  9105              STR      r1,[sp,#0x14]
002712  f7fffffe          BL       __aeabi_i2f
002716  9006              STR      r0,[sp,#0x18]
002718  220c              MOVS     r2,#0xc
00271a  f8dd1af8          LDR      r1,[sp,#0xaf8]
00271e  f8dd0a54          LDR      r0,[sp,#0xa54]
002722  fb021000          MLA      r0,r2,r0,r1
002726  499d              LDR      r1,|L1.10652|
002728  f8511020          LDR      r1,[r1,r0,LSL #2]
00272c  9105              STR      r1,[sp,#0x14]
00272e  9806              LDR      r0,[sp,#0x18]
002730  f7fffffe          BL       __aeabi_fmul
002734  9007              STR      r0,[sp,#0x1c]
002736  220c              MOVS     r2,#0xc
002738  f8dd1b08          LDR      r1,[sp,#0xb08]
00273c  f8dd0af8          LDR      r0,[sp,#0xaf8]
002740  fb020001          MLA      r0,r2,r1,r0
002744  a962              ADD      r1,sp,#0x188
002746  f8510020          LDR      r0,[r1,r0,LSL #2]
00274a  4601              MOV      r1,r0
00274c  9006              STR      r0,[sp,#0x18]
00274e  9807              LDR      r0,[sp,#0x1c]
002750  f7fffffe          BL       __aeabi_fadd
002754  4601              MOV      r1,r0
002756  230c              MOVS     r3,#0xc
002758  f8dd2af8          LDR      r2,[sp,#0xaf8]
00275c  f8dd0b08          LDR      r0,[sp,#0xb08]
002760  fb032000          MLA      r0,r3,r0,r2
002764  aa62              ADD      r2,sp,#0x188
002766  f8421020          STR      r1,[r2,r0,LSL #2]
00276a  f8dd0a54          LDR      r0,[sp,#0xa54]        ;1209
00276e  1c40              ADDS     r0,r0,#1              ;1209
002770  f8cd0a54          STR      r0,[sp,#0xa54]        ;1209
                  |L1.10100|
002774  f8dd0a54          LDR      r0,[sp,#0xa54]        ;1209
002778  280c              CMP      r0,#0xc               ;1209
00277a  dbbf              BLT      |L1.9980|
00277c  f8dd0b08          LDR      r0,[sp,#0xb08]        ;1207
002780  1c40              ADDS     r0,r0,#1              ;1207
002782  f8cd0b08          STR      r0,[sp,#0xb08]        ;1207
                  |L1.10118|
002786  f8dd0b08          LDR      r0,[sp,#0xb08]        ;1207
00278a  2806              CMP      r0,#6                 ;1207
00278c  dba7              BLT      |L1.9950|
00278e  f8dd0af8          LDR      r0,[sp,#0xaf8]        ;1206
002792  1c40              ADDS     r0,r0,#1              ;1206
002794  f8cd0af8          STR      r0,[sp,#0xaf8]        ;1206
                  |L1.10136|
002798  f8dd0af8          LDR      r0,[sp,#0xaf8]        ;1206
00279c  280c              CMP      r0,#0xc               ;1206
00279e  db9a              BLT      |L1.9942|
;;;1211               }
;;;1212             }
;;;1213           }
;;;1214   
;;;1215           b_mrdivide(d_a, b_S_k, b_K_k);
0027a0  aa0e              ADD      r2,sp,#0x38
0027a2  a9f7              ADD      r1,sp,#0x3dc
0027a4  a862              ADD      r0,sp,#0x188
0027a6  f7fffffe          BL       b_mrdivide
;;;1216   
;;;1217           /* 'AttitudeEKF:241' x_apo=x_apr+K_k*y_k; */
;;;1218           for (r2 = 0; r2 < 6; r2++) {
0027aa  2000              MOVS     r0,#0
0027ac  f8cd0af8          STR      r0,[sp,#0xaf8]
0027b0  e044              B        |L1.10300|
                  |L1.10162|
;;;1219             maxval = 0.0F;
0027b2  2100              MOVS     r1,#0
0027b4  f8cd1a58          STR      r1,[sp,#0xa58]
;;;1220             for (i = 0; i < 12; i++) {
0027b8  f8cd1b08          STR      r1,[sp,#0xb08]
0027bc  e023              B        |L1.10246|
                  |L1.10174|
;;;1221               maxval += (float)e_a[r2 + 6 * i] * x_apr[i];
0027be  2206              MOVS     r2,#6
0027c0  f8dd1af8          LDR      r1,[sp,#0xaf8]
0027c4  f8dd0b08          LDR      r0,[sp,#0xb08]
0027c8  fb021000          MLA      r0,r2,r0,r1
0027cc  4974              LDR      r1,|L1.10656|
0027ce  5609              LDRSB    r1,[r1,r0]
0027d0  4608              MOV      r0,r1
0027d2  9105              STR      r1,[sp,#0x14]
0027d4  f7fffffe          BL       __aeabi_i2f
0027d8  f60d11f4          ADD      r1,sp,#0x9f4
0027dc  9006              STR      r0,[sp,#0x18]
0027de  f8dd0b08          LDR      r0,[sp,#0xb08]
0027e2  f8511020          LDR      r1,[r1,r0,LSL #2]
0027e6  9105              STR      r1,[sp,#0x14]
0027e8  9806              LDR      r0,[sp,#0x18]
0027ea  f7fffffe          BL       __aeabi_fmul
0027ee  9007              STR      r0,[sp,#0x1c]
0027f0  f8dd1a58          LDR      r1,[sp,#0xa58]
0027f4  f7fffffe          BL       __aeabi_fadd
0027f8  f8cd0a58          STR      r0,[sp,#0xa58]
0027fc  f8dd0b08          LDR      r0,[sp,#0xb08]        ;1220
002800  1c40              ADDS     r0,r0,#1              ;1220
002802  f8cd0b08          STR      r0,[sp,#0xb08]        ;1220
                  |L1.10246|
002806  f8dd0b08          LDR      r0,[sp,#0xb08]        ;1220
00280a  280c              CMP      r0,#0xc               ;1220
00280c  dbd7              BLT      |L1.10174|
;;;1222             }
;;;1223   
;;;1224             d_r_gyro[r2] = z[r2] - maxval;
00280e  f8dd1b20          LDR      r1,[sp,#0xb20]
002812  f8dd0af8          LDR      r0,[sp,#0xaf8]
002816  f8511020          LDR      r1,[r1,r0,LSL #2]
00281a  9107              STR      r1,[sp,#0x1c]
00281c  f8dd1a58          LDR      r1,[sp,#0xa58]
002820  9807              LDR      r0,[sp,#0x1c]
002822  f7fffffe          BL       __aeabi_fsub
002826  4601              MOV      r1,r0
002828  aa5c              ADD      r2,sp,#0x170
00282a  f8dd0af8          LDR      r0,[sp,#0xaf8]
00282e  f8421020          STR      r1,[r2,r0,LSL #2]
002832  f8dd0af8          LDR      r0,[sp,#0xaf8]        ;1218
002836  1c40              ADDS     r0,r0,#1              ;1218
002838  f8cd0af8          STR      r0,[sp,#0xaf8]        ;1218
                  |L1.10300|
00283c  f8dd0af8          LDR      r0,[sp,#0xaf8]        ;1218
002840  2806              CMP      r0,#6                 ;1218
002842  dbb6              BLT      |L1.10162|
;;;1225           }
;;;1226   
;;;1227           for (r2 = 0; r2 < 12; r2++) {
002844  2000              MOVS     r0,#0
002846  f8cd0af8          STR      r0,[sp,#0xaf8]
00284a  e03f              B        |L1.10444|
                  |L1.10316|
;;;1228             maxval = 0.0F;
00284c  2100              MOVS     r1,#0
00284e  f8cd1a58          STR      r1,[sp,#0xa58]
;;;1229             for (i = 0; i < 6; i++) {
002852  f8cd1b08          STR      r1,[sp,#0xb08]
002856  e01e              B        |L1.10390|
                  |L1.10328|
;;;1230               maxval += b_K_k[r2 + 12 * i] * d_r_gyro[i];
002858  a95c              ADD      r1,sp,#0x170
00285a  f8dd0b08          LDR      r0,[sp,#0xb08]
00285e  f8511020          LDR      r1,[r1,r0,LSL #2]
002862  9106              STR      r1,[sp,#0x18]
002864  220c              MOVS     r2,#0xc
002866  f8dd1af8          LDR      r1,[sp,#0xaf8]
00286a  fb021000          MLA      r0,r2,r0,r1
00286e  a90e              ADD      r1,sp,#0x38
002870  f8511020          LDR      r1,[r1,r0,LSL #2]
002874  9105              STR      r1,[sp,#0x14]
002876  e9dd0105          LDRD     r0,r1,[sp,#0x14]
00287a  f7fffffe          BL       __aeabi_fmul
00287e  9007              STR      r0,[sp,#0x1c]
002880  f8dd1a58          LDR      r1,[sp,#0xa58]
002884  f7fffffe          BL       __aeabi_fadd
002888  f8cd0a58          STR      r0,[sp,#0xa58]
00288c  f8dd0b08          LDR      r0,[sp,#0xb08]        ;1229
002890  1c40              ADDS     r0,r0,#1              ;1229
002892  f8cd0b08          STR      r0,[sp,#0xb08]        ;1229
                  |L1.10390|
002896  f8dd0b08          LDR      r0,[sp,#0xb08]        ;1229
00289a  2806              CMP      r0,#6                 ;1229
00289c  dbdc              BLT      |L1.10328|
;;;1231             }
;;;1232   
;;;1233             x_apo[r2] = x_apr[r2] + maxval;
00289e  f60d11f4          ADD      r1,sp,#0x9f4
0028a2  f8dd0af8          LDR      r0,[sp,#0xaf8]
0028a6  f8511020          LDR      r1,[r1,r0,LSL #2]
0028aa  9107              STR      r1,[sp,#0x1c]
0028ac  f8dd1a58          LDR      r1,[sp,#0xa58]
0028b0  9807              LDR      r0,[sp,#0x1c]
0028b2  f7fffffe          BL       __aeabi_fadd
0028b6  4601              MOV      r1,r0
0028b8  4a3a              LDR      r2,|L1.10660|
0028ba  f8dd0af8          LDR      r0,[sp,#0xaf8]
0028be  f8421020          STR      r1,[r2,r0,LSL #2]
0028c2  f8dd0af8          LDR      r0,[sp,#0xaf8]        ;1227
0028c6  1c40              ADDS     r0,r0,#1              ;1227
0028c8  f8cd0af8          STR      r0,[sp,#0xaf8]        ;1227
                  |L1.10444|
0028cc  f8dd0af8          LDR      r0,[sp,#0xaf8]        ;1227
0028d0  280c              CMP      r0,#0xc               ;1227
0028d2  dbbb              BLT      |L1.10316|
;;;1234           }
;;;1235   
;;;1236           /* 'AttitudeEKF:242' P_apo=(eye(12)-K_k*H_k(1:6,1:12))*P_apr; */
;;;1237           memset(&I[0], 0, 144U * sizeof(signed char));
0028d4  2190              MOVS     r1,#0x90
0028d6  f60d1064          ADD      r0,sp,#0x964
0028da  f7fffffe          BL       __aeabi_memclr4
;;;1238           for (i = 0; i < 12; i++) {
0028de  2000              MOVS     r0,#0
0028e0  f8cd0b08          STR      r0,[sp,#0xb08]
0028e4  e00d              B        |L1.10498|
                  |L1.10470|
;;;1239             I[i + 12 * i] = 1;
0028e6  2201              MOVS     r2,#1
0028e8  210c              MOVS     r1,#0xc
0028ea  f8dd0b08          LDR      r0,[sp,#0xb08]
0028ee  fb010000          MLA      r0,r1,r0,r0
0028f2  f60d1164          ADD      r1,sp,#0x964
0028f6  540a              STRB     r2,[r1,r0]
0028f8  f8dd0b08          LDR      r0,[sp,#0xb08]        ;1238
0028fc  1c40              ADDS     r0,r0,#1              ;1238
0028fe  f8cd0b08          STR      r0,[sp,#0xb08]        ;1238
                  |L1.10498|
002902  f8dd0b08          LDR      r0,[sp,#0xb08]        ;1238
002906  280c              CMP      r0,#0xc               ;1238
002908  dbed              BLT      |L1.10470|
;;;1240           }
;;;1241   
;;;1242           for (r2 = 0; r2 < 12; r2++) {
00290a  2000              MOVS     r0,#0
00290c  f8cd0af8          STR      r0,[sp,#0xaf8]
002910  e06a              B        |L1.10728|
                  |L1.10514|
;;;1243             for (i = 0; i < 12; i++) {
002912  2000              MOVS     r0,#0
002914  f8cd0b08          STR      r0,[sp,#0xb08]
002918  e05d              B        |L1.10710|
                  |L1.10522|
;;;1244               maxval = 0.0F;
00291a  2100              MOVS     r1,#0
00291c  f8cd1a58          STR      r1,[sp,#0xa58]
;;;1245               for (r1 = 0; r1 < 6; r1++) {
002920  f8cd1a54          STR      r1,[sp,#0xa54]
002924  e027              B        |L1.10614|
                  |L1.10534|
;;;1246                 maxval += b_K_k[r2 + 12 * r1] * (float)e_a[r1 + 6 * i];
002926  2206              MOVS     r2,#6
002928  f8dd1a54          LDR      r1,[sp,#0xa54]
00292c  f8dd0b08          LDR      r0,[sp,#0xb08]
002930  fb021000          MLA      r0,r2,r0,r1
002934  491a              LDR      r1,|L1.10656|
002936  5609              LDRSB    r1,[r1,r0]
002938  4608              MOV      r0,r1
00293a  9105              STR      r1,[sp,#0x14]
00293c  f7fffffe          BL       __aeabi_i2f
002940  9006              STR      r0,[sp,#0x18]
002942  220c              MOVS     r2,#0xc
002944  f8dd1af8          LDR      r1,[sp,#0xaf8]
002948  f8dd0a54          LDR      r0,[sp,#0xa54]
00294c  fb021000          MLA      r0,r2,r0,r1
002950  a90e              ADD      r1,sp,#0x38
002952  f8511020          LDR      r1,[r1,r0,LSL #2]
002956  9105              STR      r1,[sp,#0x14]
002958  9806              LDR      r0,[sp,#0x18]
00295a  f7fffffe          BL       __aeabi_fmul
00295e  9007              STR      r0,[sp,#0x1c]
002960  f8dd1a58          LDR      r1,[sp,#0xa58]
002964  f7fffffe          BL       __aeabi_fadd
002968  f8cd0a58          STR      r0,[sp,#0xa58]
00296c  f8dd0a54          LDR      r0,[sp,#0xa54]        ;1245
002970  1c40              ADDS     r0,r0,#1              ;1245
002972  f8cd0a54          STR      r0,[sp,#0xa54]        ;1245
                  |L1.10614|
002976  f8dd0a54          LDR      r0,[sp,#0xa54]        ;1245
00297a  2806              CMP      r0,#6                 ;1245
00297c  dbd3              BLT      |L1.10534|
;;;1247               }
;;;1248   
;;;1249               A_lin[r2 + 12 * i] = (float)I[r2 + 12 * i] - maxval;
00297e  220c              MOVS     r2,#0xc
002980  f8dd1af8          LDR      r1,[sp,#0xaf8]
002984  f8dd0b08          LDR      r0,[sp,#0xb08]
002988  fb021000          MLA      r0,r2,r0,r1
00298c  f60d1164          ADD      r1,sp,#0x964
002990  5609              LDRSB    r1,[r1,r0]
002992  4608              MOV      r0,r1
002994  9106              STR      r1,[sp,#0x18]
002996  e007              B        |L1.10664|
                  |L1.10648|
                          DCD      ||c_b||
                  |L1.10652|
                          DCD      P_apr
                  |L1.10656|
                          DCD      e_a
                  |L1.10660|
                          DCD      x_apo
                  |L1.10664|
0029a8  f7fffffe          BL       __aeabi_i2f
0029ac  9007              STR      r0,[sp,#0x1c]
0029ae  f8dd1a58          LDR      r1,[sp,#0xa58]
0029b2  f7fffffe          BL       __aeabi_fsub
0029b6  4601              MOV      r1,r0
0029b8  230c              MOVS     r3,#0xc
0029ba  f8dd2af8          LDR      r2,[sp,#0xaf8]
0029be  f8dd0b08          LDR      r0,[sp,#0xb08]
0029c2  fb032000          MLA      r0,r3,r0,r2
0029c6  4afe              LDR      r2,|L1.11712|
0029c8  f8421020          STR      r1,[r2,r0,LSL #2]
0029cc  f8dd0b08          LDR      r0,[sp,#0xb08]        ;1243
0029d0  1c40              ADDS     r0,r0,#1              ;1243
0029d2  f8cd0b08          STR      r0,[sp,#0xb08]        ;1243
                  |L1.10710|
0029d6  f8dd0b08          LDR      r0,[sp,#0xb08]        ;1243
0029da  280c              CMP      r0,#0xc               ;1243
0029dc  db9d              BLT      |L1.10522|
0029de  f8dd0af8          LDR      r0,[sp,#0xaf8]        ;1242
0029e2  1c40              ADDS     r0,r0,#1              ;1242
0029e4  f8cd0af8          STR      r0,[sp,#0xaf8]        ;1242
                  |L1.10728|
0029e8  f8dd0af8          LDR      r0,[sp,#0xaf8]        ;1242
0029ec  280c              CMP      r0,#0xc               ;1242
0029ee  db90              BLT      |L1.10514|
;;;1250             }
;;;1251           }
;;;1252   
;;;1253           for (r2 = 0; r2 < 12; r2++) {
0029f0  2000              MOVS     r0,#0
0029f2  f8cd0af8          STR      r0,[sp,#0xaf8]
0029f6  e05d              B        |L1.10932|
                  |L1.10744|
;;;1254             for (i = 0; i < 12; i++) {
0029f8  2000              MOVS     r0,#0
0029fa  f8cd0b08          STR      r0,[sp,#0xb08]
0029fe  e050              B        |L1.10914|
                  |L1.10752|
;;;1255               P_apo[r2 + 12 * i] = 0.0F;
002a00  2200              MOVS     r2,#0
002a02  230c              MOVS     r3,#0xc
002a04  f8dd1af8          LDR      r1,[sp,#0xaf8]
002a08  f8dd0b08          LDR      r0,[sp,#0xb08]
002a0c  fb031000          MLA      r0,r3,r0,r1
002a10  49ec              LDR      r1,|L1.11716|
002a12  f8412020          STR      r2,[r1,r0,LSL #2]
;;;1256               for (r1 = 0; r1 < 12; r1++) {
002a16  2100              MOVS     r1,#0
002a18  f8cd1a54          STR      r1,[sp,#0xa54]
002a1c  e038              B        |L1.10896|
                  |L1.10782|
;;;1257                 P_apo[r2 + 12 * i] += A_lin[r2 + 12 * r1] * P_apr[r1 + 12 * i];
002a1e  220c              MOVS     r2,#0xc
002a20  f8dd1a54          LDR      r1,[sp,#0xa54]
002a24  f8dd0b08          LDR      r0,[sp,#0xb08]
002a28  fb021000          MLA      r0,r2,r0,r1
002a2c  49e6              LDR      r1,|L1.11720|
002a2e  f8511020          LDR      r1,[r1,r0,LSL #2]
002a32  9106              STR      r1,[sp,#0x18]
002a34  f8dd1af8          LDR      r1,[sp,#0xaf8]
002a38  f8dd0a54          LDR      r0,[sp,#0xa54]
002a3c  fb021000          MLA      r0,r2,r0,r1
002a40  49df              LDR      r1,|L1.11712|
002a42  f8511020          LDR      r1,[r1,r0,LSL #2]
002a46  9105              STR      r1,[sp,#0x14]
002a48  e9dd0105          LDRD     r0,r1,[sp,#0x14]
002a4c  f7fffffe          BL       __aeabi_fmul
002a50  9007              STR      r0,[sp,#0x1c]
002a52  220c              MOVS     r2,#0xc
002a54  f8dd1b08          LDR      r1,[sp,#0xb08]
002a58  f8dd0af8          LDR      r0,[sp,#0xaf8]
002a5c  fb020001          MLA      r0,r2,r1,r0
002a60  49d8              LDR      r1,|L1.11716|
002a62  f8510020          LDR      r0,[r1,r0,LSL #2]
002a66  4601              MOV      r1,r0
002a68  9006              STR      r0,[sp,#0x18]
002a6a  9807              LDR      r0,[sp,#0x1c]
002a6c  f7fffffe          BL       __aeabi_fadd
002a70  4601              MOV      r1,r0
002a72  230c              MOVS     r3,#0xc
002a74  f8dd2af8          LDR      r2,[sp,#0xaf8]
002a78  f8dd0b08          LDR      r0,[sp,#0xb08]
002a7c  fb032000          MLA      r0,r3,r0,r2
002a80  4ad0              LDR      r2,|L1.11716|
002a82  f8421020          STR      r1,[r2,r0,LSL #2]
002a86  f8dd0a54          LDR      r0,[sp,#0xa54]        ;1256
002a8a  1c40              ADDS     r0,r0,#1              ;1256
002a8c  f8cd0a54          STR      r0,[sp,#0xa54]        ;1256
                  |L1.10896|
002a90  f8dd0a54          LDR      r0,[sp,#0xa54]        ;1256
002a94  280c              CMP      r0,#0xc               ;1256
002a96  dbc2              BLT      |L1.10782|
002a98  f8dd0b08          LDR      r0,[sp,#0xb08]        ;1254
002a9c  1c40              ADDS     r0,r0,#1              ;1254
002a9e  f8cd0b08          STR      r0,[sp,#0xb08]        ;1254
                  |L1.10914|
002aa2  f8dd0b08          LDR      r0,[sp,#0xb08]        ;1254
002aa6  280c              CMP      r0,#0xc               ;1254
002aa8  dbaa              BLT      |L1.10752|
002aaa  f8dd0af8          LDR      r0,[sp,#0xaf8]        ;1253
002aae  1c40              ADDS     r0,r0,#1              ;1253
002ab0  f8cd0af8          STR      r0,[sp,#0xaf8]        ;1253
                  |L1.10932|
002ab4  f8dd0af8          LDR      r0,[sp,#0xaf8]        ;1253
002ab8  280c              CMP      r0,#0xc               ;1253
002aba  db9d              BLT      |L1.10744|
                  |L1.10940|
002abc  e375              B        |L1.12714|
                  |L1.10942|
;;;1258               }
;;;1259             }
;;;1260           }
;;;1261         } else {
;;;1262           /* 'AttitudeEKF:243' else */
;;;1263           /* 'AttitudeEKF:244' if  zFlag(1)==1&&zFlag(2)==0&&zFlag(3)==1 */
;;;1264           if ((zFlag[0] == 1) && (zFlag[1] == 0) && (zFlag[2] == 1)) {
002abe  f8dd0b14          LDR      r0,[sp,#0xb14]
002ac2  7800              LDRB     r0,[r0,#0]
002ac4  2801              CMP      r0,#1
                  |L1.10950|
002ac6  d17b              BNE      |L1.11200|
002ac8  f8dd0b14          LDR      r0,[sp,#0xb14]
002acc  7840              LDRB     r0,[r0,#1]
002ace  2800              CMP      r0,#0
002ad0  d1f9              BNE      |L1.10950|
002ad2  f8dd0b14          LDR      r0,[sp,#0xb14]
002ad6  7880              LDRB     r0,[r0,#2]
002ad8  2801              CMP      r0,#1
002ada  d1f4              BNE      |L1.10950|
;;;1265             /*                  R=[r_gyro,0,0,0,0,0; */
;;;1266             /*                      0,r_gyro,0,0,0,0; */
;;;1267             /*                      0,0,r_gyro,0,0,0; */
;;;1268             /*                      0,0,0,r_mag,0,0; */
;;;1269             /*                      0,0,0,0,r_mag,0; */
;;;1270             /*                      0,0,0,0,0,r_mag]; */
;;;1271             /* 'AttitudeEKF:251' R_v=[r_gyro,r_gyro,r_gyro,r_mag,r_mag,r_mag]; */
;;;1272             /* observation matrix */
;;;1273             /* 'AttitudeEKF:254' H_k=[  E,     Z,      Z,    Z; */
;;;1274             /* 'AttitudeEKF:255'                     Z,     Z,      Z,    E]; */
;;;1275             /* 'AttitudeEKF:257' y_k=[z(1:3);z(7:9)]-H_k(1:6,1:12)*x_apr; */
;;;1276             /* S_k=H_k(1:6,1:12)*P_apr*H_k(1:6,1:12)'+R(1:6,1:6); */
;;;1277             /* 'AttitudeEKF:260' S_k=H_k(1:6,1:12)*P_apr*H_k(1:6,1:12)'; */
;;;1278             for (r2 = 0; r2 < 6; r2++) {
002adc  2000              MOVS     r0,#0
002ade  f8cd0af8          STR      r0,[sp,#0xaf8]
002ae2  e0bc              B        |L1.11358|
                  |L1.10980|
;;;1279               for (i = 0; i < 12; i++) {
002ae4  2000              MOVS     r0,#0
002ae6  f8cd0b08          STR      r0,[sp,#0xb08]
002aea  e052              B        |L1.11154|
                  |L1.10988|
;;;1280                 d_a[r2 + 6 * i] = 0.0F;
002aec  2200              MOVS     r2,#0
002aee  2306              MOVS     r3,#6
002af0  f8dd1af8          LDR      r1,[sp,#0xaf8]
002af4  f8dd0b08          LDR      r0,[sp,#0xb08]
002af8  fb031000          MLA      r0,r3,r0,r1
002afc  a962              ADD      r1,sp,#0x188
002afe  f8412020          STR      r2,[r1,r0,LSL #2]
;;;1281                 for (r1 = 0; r1 < 12; r1++) {
002b02  2100              MOVS     r1,#0
002b04  f8cd1a54          STR      r1,[sp,#0xa54]
002b08  e03a              B        |L1.11136|
                  |L1.11018|
;;;1282                   d_a[r2 + 6 * i] += (float)f_a[r2 + 6 * r1] * P_apr[r1 + 12 * i];
002b0a  2206              MOVS     r2,#6
002b0c  f8dd1af8          LDR      r1,[sp,#0xaf8]
002b10  f8dd0a54          LDR      r0,[sp,#0xa54]
002b14  fb021000          MLA      r0,r2,r0,r1
002b18  49ac              LDR      r1,|L1.11724|
002b1a  5609              LDRSB    r1,[r1,r0]
002b1c  4608              MOV      r0,r1
002b1e  9105              STR      r1,[sp,#0x14]
002b20  f7fffffe          BL       __aeabi_i2f
002b24  9006              STR      r0,[sp,#0x18]
002b26  220c              MOVS     r2,#0xc
002b28  f8dd1a54          LDR      r1,[sp,#0xa54]
002b2c  f8dd0b08          LDR      r0,[sp,#0xb08]
002b30  fb021000          MLA      r0,r2,r0,r1
002b34  49a4              LDR      r1,|L1.11720|
002b36  f8511020          LDR      r1,[r1,r0,LSL #2]
002b3a  9105              STR      r1,[sp,#0x14]
002b3c  9806              LDR      r0,[sp,#0x18]
002b3e  f7fffffe          BL       __aeabi_fmul
002b42  9007              STR      r0,[sp,#0x1c]
002b44  2206              MOVS     r2,#6
002b46  f8dd1af8          LDR      r1,[sp,#0xaf8]
002b4a  f8dd0b08          LDR      r0,[sp,#0xb08]
002b4e  fb021000          MLA      r0,r2,r0,r1
002b52  a962              ADD      r1,sp,#0x188
002b54  f8511020          LDR      r1,[r1,r0,LSL #2]
002b58  9106              STR      r1,[sp,#0x18]
002b5a  9807              LDR      r0,[sp,#0x1c]
002b5c  f7fffffe          BL       __aeabi_fadd
002b60  4601              MOV      r1,r0
002b62  2306              MOVS     r3,#6
002b64  f8dd2af8          LDR      r2,[sp,#0xaf8]
002b68  f8dd0b08          LDR      r0,[sp,#0xb08]
002b6c  fb032000          MLA      r0,r3,r0,r2
002b70  aa62              ADD      r2,sp,#0x188
002b72  f8421020          STR      r1,[r2,r0,LSL #2]
002b76  f8dd0a54          LDR      r0,[sp,#0xa54]        ;1281
002b7a  1c40              ADDS     r0,r0,#1              ;1281
002b7c  f8cd0a54          STR      r0,[sp,#0xa54]        ;1281
                  |L1.11136|
002b80  f8dd0a54          LDR      r0,[sp,#0xa54]        ;1281
002b84  280c              CMP      r0,#0xc               ;1281
002b86  dbc0              BLT      |L1.11018|
002b88  f8dd0b08          LDR      r0,[sp,#0xb08]        ;1279
002b8c  1c40              ADDS     r0,r0,#1              ;1279
002b8e  f8cd0b08          STR      r0,[sp,#0xb08]        ;1279
                  |L1.11154|
002b92  f8dd0b08          LDR      r0,[sp,#0xb08]        ;1279
002b96  280c              CMP      r0,#0xc               ;1279
002b98  dba8              BLT      |L1.10988|
;;;1283                 }
;;;1284               }
;;;1285   
;;;1286               for (i = 0; i < 6; i++) {
002b9a  2000              MOVS     r0,#0
002b9c  f8cd0b08          STR      r0,[sp,#0xb08]
002ba0  e054              B        |L1.11340|
                  |L1.11170|
;;;1287                 b_S_k[r2 + 6 * i] = 0.0F;
002ba2  2200              MOVS     r2,#0
002ba4  2306              MOVS     r3,#6
002ba6  f8dd1af8          LDR      r1,[sp,#0xaf8]
002baa  f8dd0b08          LDR      r0,[sp,#0xb08]
002bae  fb031000          MLA      r0,r3,r0,r1
002bb2  a9f7              ADD      r1,sp,#0x3dc
002bb4  f8412020          STR      r2,[r1,r0,LSL #2]
;;;1288                 for (r1 = 0; r1 < 12; r1++) {
002bb8  2100              MOVS     r1,#0
002bba  f8cd1a54          STR      r1,[sp,#0xa54]
002bbe  e03c              B        |L1.11322|
                  |L1.11200|
002bc0  e2d7              B        |L1.12658|
                  |L1.11202|
;;;1289                   b_S_k[r2 + 6 * i] += d_a[r2 + 6 * r1] * (float)d_b[r1 + 12 * i];
002bc2  220c              MOVS     r2,#0xc
002bc4  f8dd1a54          LDR      r1,[sp,#0xa54]
002bc8  f8dd0b08          LDR      r0,[sp,#0xb08]
002bcc  fb021000          MLA      r0,r2,r0,r1
002bd0  497f              LDR      r1,|L1.11728|
002bd2  5609              LDRSB    r1,[r1,r0]
002bd4  4608              MOV      r0,r1
002bd6  9105              STR      r1,[sp,#0x14]
002bd8  f7fffffe          BL       __aeabi_i2f
002bdc  9006              STR      r0,[sp,#0x18]
002bde  2206              MOVS     r2,#6
002be0  f8dd1af8          LDR      r1,[sp,#0xaf8]
002be4  f8dd0a54          LDR      r0,[sp,#0xa54]
002be8  fb021000          MLA      r0,r2,r0,r1
002bec  a962              ADD      r1,sp,#0x188
002bee  f8511020          LDR      r1,[r1,r0,LSL #2]
002bf2  9105              STR      r1,[sp,#0x14]
002bf4  9806              LDR      r0,[sp,#0x18]
002bf6  f7fffffe          BL       __aeabi_fmul
002bfa  9007              STR      r0,[sp,#0x1c]
002bfc  2206              MOVS     r2,#6
002bfe  f8dd1b08          LDR      r1,[sp,#0xb08]
002c02  f8dd0af8          LDR      r0,[sp,#0xaf8]
002c06  fb020001          MLA      r0,r2,r1,r0
002c0a  a9f7              ADD      r1,sp,#0x3dc
002c0c  f8510020          LDR      r0,[r1,r0,LSL #2]
002c10  4601              MOV      r1,r0
002c12  9006              STR      r0,[sp,#0x18]
002c14  9807              LDR      r0,[sp,#0x1c]
002c16  f7fffffe          BL       __aeabi_fadd
002c1a  4601              MOV      r1,r0
002c1c  2306              MOVS     r3,#6
002c1e  f8dd2af8          LDR      r2,[sp,#0xaf8]
002c22  f8dd0b08          LDR      r0,[sp,#0xb08]
002c26  fb032000          MLA      r0,r3,r0,r2
002c2a  aaf7              ADD      r2,sp,#0x3dc
002c2c  f8421020          STR      r1,[r2,r0,LSL #2]
002c30  f8dd0a54          LDR      r0,[sp,#0xa54]        ;1288
002c34  1c40              ADDS     r0,r0,#1              ;1288
002c36  f8cd0a54          STR      r0,[sp,#0xa54]        ;1288
                  |L1.11322|
002c3a  f8dd0a54          LDR      r0,[sp,#0xa54]        ;1288
002c3e  280c              CMP      r0,#0xc               ;1288
002c40  dbbf              BLT      |L1.11202|
002c42  f8dd0b08          LDR      r0,[sp,#0xb08]        ;1286
002c46  1c40              ADDS     r0,r0,#1              ;1286
002c48  f8cd0b08          STR      r0,[sp,#0xb08]        ;1286
                  |L1.11340|
002c4c  f8dd0b08          LDR      r0,[sp,#0xb08]        ;1286
002c50  2806              CMP      r0,#6                 ;1286
002c52  dba6              BLT      |L1.11170|
002c54  f8dd0af8          LDR      r0,[sp,#0xaf8]        ;1278
002c58  1c40              ADDS     r0,r0,#1              ;1278
002c5a  f8cd0af8          STR      r0,[sp,#0xaf8]        ;1278
                  |L1.11358|
002c5e  f8dd0af8          LDR      r0,[sp,#0xaf8]        ;1278
002c62  2806              CMP      r0,#6                 ;1278
002c64  f6ffaf3e          BLT      |L1.10980|
;;;1290                 }
;;;1291               }
;;;1292             }
;;;1293   
;;;1294             /* 'AttitudeEKF:261' S_k(1:6+1:end) = S_k(1:6+1:end) + R_v; */
;;;1295             d_r_gyro[0] = r_gyro;
002c68  f8dd1b34          LDR      r1,[sp,#0xb34]
002c6c  915c              STR      r1,[sp,#0x170]
;;;1296             d_r_gyro[1] = r_gyro;
002c6e  f8dd1b34          LDR      r1,[sp,#0xb34]
002c72  915d              STR      r1,[sp,#0x174]
;;;1297             d_r_gyro[2] = r_gyro;
002c74  f8dd1b34          LDR      r1,[sp,#0xb34]
002c78  915e              STR      r1,[sp,#0x178]
;;;1298             d_r_gyro[3] = r_mag;
002c7a  f8dd1b3c          LDR      r1,[sp,#0xb3c]
002c7e  915f              STR      r1,[sp,#0x17c]
;;;1299             d_r_gyro[4] = r_mag;
002c80  f8dd1b3c          LDR      r1,[sp,#0xb3c]
002c84  9160              STR      r1,[sp,#0x180]
;;;1300             d_r_gyro[5] = r_mag;
002c86  f8dd1b3c          LDR      r1,[sp,#0xb3c]
002c8a  9161              STR      r1,[sp,#0x184]
;;;1301             for (r2 = 0; r2 < 6; r2++) {
002c8c  2100              MOVS     r1,#0
002c8e  f8cd1af8          STR      r1,[sp,#0xaf8]
002c92  e01a              B        |L1.11466|
                  |L1.11412|
;;;1302               c_S_k[r2] = b_S_k[7 * r2] + d_r_gyro[r2];
002c94  a95c              ADD      r1,sp,#0x170
002c96  f8dd0af8          LDR      r0,[sp,#0xaf8]
002c9a  f8511020          LDR      r1,[r1,r0,LSL #2]
002c9e  ebc000c0          RSB      r0,r0,r0,LSL #3
002ca2  9107              STR      r1,[sp,#0x1c]
002ca4  a9f7              ADD      r1,sp,#0x3dc
002ca6  f8511020          LDR      r1,[r1,r0,LSL #2]
002caa  9106              STR      r1,[sp,#0x18]
002cac  e9dd0106          LDRD     r0,r1,[sp,#0x18]
002cb0  f7fffffe          BL       __aeabi_fadd
002cb4  4601              MOV      r1,r0
002cb6  aa56              ADD      r2,sp,#0x158
002cb8  f8dd0af8          LDR      r0,[sp,#0xaf8]
002cbc  f8421020          STR      r1,[r2,r0,LSL #2]
002cc0  f8dd0af8          LDR      r0,[sp,#0xaf8]        ;1301
002cc4  1c40              ADDS     r0,r0,#1              ;1301
002cc6  f8cd0af8          STR      r0,[sp,#0xaf8]        ;1301
                  |L1.11466|
002cca  f8dd0af8          LDR      r0,[sp,#0xaf8]        ;1301
002cce  2806              CMP      r0,#6                 ;1301
002cd0  dbe0              BLT      |L1.11412|
;;;1303             }
;;;1304   
;;;1305             for (r2 = 0; r2 < 6; r2++) {
002cd2  2000              MOVS     r0,#0
002cd4  f8cd0af8          STR      r0,[sp,#0xaf8]
002cd8  e00e              B        |L1.11512|
                  |L1.11482|
;;;1306               b_S_k[7 * r2] = c_S_k[r2];
002cda  a956              ADD      r1,sp,#0x158
002cdc  f8dd0af8          LDR      r0,[sp,#0xaf8]
002ce0  f8511020          LDR      r1,[r1,r0,LSL #2]
002ce4  ebc000c0          RSB      r0,r0,r0,LSL #3
002ce8  aaf7              ADD      r2,sp,#0x3dc
002cea  f8421020          STR      r1,[r2,r0,LSL #2]
002cee  f8dd0af8          LDR      r0,[sp,#0xaf8]        ;1305
002cf2  1c40              ADDS     r0,r0,#1              ;1305
002cf4  f8cd0af8          STR      r0,[sp,#0xaf8]        ;1305
                  |L1.11512|
002cf8  f8dd0af8          LDR      r0,[sp,#0xaf8]        ;1305
002cfc  2806              CMP      r0,#6                 ;1305
002cfe  dbec              BLT      |L1.11482|
;;;1307             }
;;;1308   
;;;1309             /* 'AttitudeEKF:262' K_k=(P_apr*H_k(1:6,1:12)'/(S_k)); */
;;;1310             for (r2 = 0; r2 < 12; r2++) {
002d00  2000              MOVS     r0,#0
002d02  f8cd0af8          STR      r0,[sp,#0xaf8]
002d06  e06a              B        |L1.11742|
                  |L1.11528|
;;;1311               for (i = 0; i < 6; i++) {
002d08  2000              MOVS     r0,#0
002d0a  f8cd0b08          STR      r0,[sp,#0xb08]
002d0e  e052              B        |L1.11702|
                  |L1.11536|
;;;1312                 d_a[r2 + 12 * i] = 0.0F;
002d10  2200              MOVS     r2,#0
002d12  230c              MOVS     r3,#0xc
002d14  f8dd1af8          LDR      r1,[sp,#0xaf8]
002d18  f8dd0b08          LDR      r0,[sp,#0xb08]
002d1c  fb031000          MLA      r0,r3,r0,r1
002d20  a962              ADD      r1,sp,#0x188
002d22  f8412020          STR      r2,[r1,r0,LSL #2]
;;;1313                 for (r1 = 0; r1 < 12; r1++) {
002d26  2100              MOVS     r1,#0
002d28  f8cd1a54          STR      r1,[sp,#0xa54]
002d2c  e03a              B        |L1.11684|
                  |L1.11566|
;;;1314                   d_a[r2 + 12 * i] += P_apr[r2 + 12 * r1] * (float)d_b[r1 + 12 * i];
002d2e  220c              MOVS     r2,#0xc
002d30  f8dd1a54          LDR      r1,[sp,#0xa54]
002d34  f8dd0b08          LDR      r0,[sp,#0xb08]
002d38  fb021000          MLA      r0,r2,r0,r1
002d3c  4924              LDR      r1,|L1.11728|
002d3e  5609              LDRSB    r1,[r1,r0]
002d40  4608              MOV      r0,r1
002d42  9105              STR      r1,[sp,#0x14]
002d44  f7fffffe          BL       __aeabi_i2f
002d48  9006              STR      r0,[sp,#0x18]
002d4a  220c              MOVS     r2,#0xc
002d4c  f8dd1af8          LDR      r1,[sp,#0xaf8]
002d50  f8dd0a54          LDR      r0,[sp,#0xa54]
002d54  fb021000          MLA      r0,r2,r0,r1
002d58  491b              LDR      r1,|L1.11720|
002d5a  f8511020          LDR      r1,[r1,r0,LSL #2]
002d5e  9105              STR      r1,[sp,#0x14]
002d60  9806              LDR      r0,[sp,#0x18]
002d62  f7fffffe          BL       __aeabi_fmul
002d66  9007              STR      r0,[sp,#0x1c]
002d68  220c              MOVS     r2,#0xc
002d6a  f8dd1af8          LDR      r1,[sp,#0xaf8]
002d6e  f8dd0b08          LDR      r0,[sp,#0xb08]
002d72  fb021000          MLA      r0,r2,r0,r1
002d76  a962              ADD      r1,sp,#0x188
002d78  f8511020          LDR      r1,[r1,r0,LSL #2]
002d7c  9106              STR      r1,[sp,#0x18]
002d7e  9807              LDR      r0,[sp,#0x1c]
002d80  f7fffffe          BL       __aeabi_fadd
002d84  4601              MOV      r1,r0
002d86  230c              MOVS     r3,#0xc
002d88  f8dd2af8          LDR      r2,[sp,#0xaf8]
002d8c  f8dd0b08          LDR      r0,[sp,#0xb08]
002d90  fb032000          MLA      r0,r3,r0,r2
002d94  aa62              ADD      r2,sp,#0x188
002d96  f8421020          STR      r1,[r2,r0,LSL #2]
002d9a  f8dd0a54          LDR      r0,[sp,#0xa54]        ;1313
002d9e  1c40              ADDS     r0,r0,#1              ;1313
002da0  f8cd0a54          STR      r0,[sp,#0xa54]        ;1313
                  |L1.11684|
002da4  f8dd0a54          LDR      r0,[sp,#0xa54]        ;1313
002da8  280c              CMP      r0,#0xc               ;1313
002daa  dbc0              BLT      |L1.11566|
002dac  f8dd0b08          LDR      r0,[sp,#0xb08]        ;1311
002db0  1c40              ADDS     r0,r0,#1              ;1311
002db2  f8cd0b08          STR      r0,[sp,#0xb08]        ;1311
                  |L1.11702|
002db6  f8dd0b08          LDR      r0,[sp,#0xb08]        ;1311
002dba  2806              CMP      r0,#6                 ;1311
002dbc  dba8              BLT      |L1.11536|
002dbe  e009              B        |L1.11732|
                  |L1.11712|
                          DCD      A_lin
                  |L1.11716|
                          DCD      P_apo
                  |L1.11720|
                          DCD      P_apr
                  |L1.11724|
                          DCD      ||f_a||
                  |L1.11728|
                          DCD      ||d_b||
                  |L1.11732|
002dd4  f8dd0af8          LDR      r0,[sp,#0xaf8]        ;1310
002dd8  1c40              ADDS     r0,r0,#1              ;1310
002dda  f8cd0af8          STR      r0,[sp,#0xaf8]        ;1310
                  |L1.11742|
002dde  f8dd0af8          LDR      r0,[sp,#0xaf8]        ;1310
002de2  280c              CMP      r0,#0xc               ;1310
002de4  db90              BLT      |L1.11528|
;;;1315                 }
;;;1316               }
;;;1317             }
;;;1318   
;;;1319             b_mrdivide(d_a, b_S_k, b_K_k);
002de6  aa0e              ADD      r2,sp,#0x38
002de8  a9f7              ADD      r1,sp,#0x3dc
002dea  a862              ADD      r0,sp,#0x188
002dec  f7fffffe          BL       b_mrdivide
;;;1320   
;;;1321             /* 'AttitudeEKF:265' x_apo=x_apr+K_k*y_k; */
;;;1322             for (r2 = 0; r2 < 3; r2++) {
002df0  2000              MOVS     r0,#0
002df2  f8cd0af8          STR      r0,[sp,#0xaf8]
002df6  e00d              B        |L1.11796|
                  |L1.11768|
;;;1323               d_r_gyro[r2] = z[r2];
002df8  f8dd1b20          LDR      r1,[sp,#0xb20]
002dfc  f8dd0af8          LDR      r0,[sp,#0xaf8]
002e00  f8511020          LDR      r1,[r1,r0,LSL #2]
002e04  aa5c              ADD      r2,sp,#0x170
002e06  f8421020          STR      r1,[r2,r0,LSL #2]
002e0a  f8dd0af8          LDR      r0,[sp,#0xaf8]        ;1322
002e0e  1c40              ADDS     r0,r0,#1              ;1322
002e10  f8cd0af8          STR      r0,[sp,#0xaf8]        ;1322
                  |L1.11796|
002e14  f8dd0af8          LDR      r0,[sp,#0xaf8]        ;1322
002e18  2803              CMP      r0,#3                 ;1322
002e1a  dbed              BLT      |L1.11768|
;;;1324             }
;;;1325   
;;;1326             for (r2 = 0; r2 < 3; r2++) {
002e1c  2000              MOVS     r0,#0
002e1e  f8cd0af8          STR      r0,[sp,#0xaf8]
002e22  e011              B        |L1.11848|
                  |L1.11812|
;;;1327               d_r_gyro[r2 + 3] = z[6 + r2];
002e24  f8dd0af8          LDR      r0,[sp,#0xaf8]
002e28  1d81              ADDS     r1,r0,#6
002e2a  f8dd0b20          LDR      r0,[sp,#0xb20]
002e2e  f8501021          LDR      r1,[r0,r1,LSL #2]
002e32  aa5c              ADD      r2,sp,#0x170
002e34  f8dd0af8          LDR      r0,[sp,#0xaf8]
002e38  1cc0              ADDS     r0,r0,#3
002e3a  f8421020          STR      r1,[r2,r0,LSL #2]
002e3e  f8dd0af8          LDR      r0,[sp,#0xaf8]        ;1326
002e42  1c40              ADDS     r0,r0,#1              ;1326
002e44  f8cd0af8          STR      r0,[sp,#0xaf8]        ;1326
                  |L1.11848|
002e48  f8dd0af8          LDR      r0,[sp,#0xaf8]        ;1326
002e4c  2803              CMP      r0,#3                 ;1326
002e4e  dbe9              BLT      |L1.11812|
;;;1328             }
;;;1329   
;;;1330             for (r2 = 0; r2 < 6; r2++) {
002e50  2000              MOVS     r0,#0
002e52  f8cd0af8          STR      r0,[sp,#0xaf8]
002e56  e054              B        |L1.12034|
                  |L1.11864|
;;;1331               c_S_k[r2] = 0.0F;
002e58  2100              MOVS     r1,#0
002e5a  aa56              ADD      r2,sp,#0x158
002e5c  f8dd0af8          LDR      r0,[sp,#0xaf8]
002e60  f8421020          STR      r1,[r2,r0,LSL #2]
;;;1332               for (i = 0; i < 12; i++) {
002e64  f8cd1b08          STR      r1,[sp,#0xb08]
002e68  e02e              B        |L1.11976|
                  |L1.11882|
;;;1333                 c_S_k[r2] += (float)f_a[r2 + 6 * i] * x_apr[i];
002e6a  2206              MOVS     r2,#6
002e6c  f8dd1af8          LDR      r1,[sp,#0xaf8]
002e70  f8dd0b08          LDR      r0,[sp,#0xb08]
002e74  fb021000          MLA      r0,r2,r0,r1
002e78  49fe              LDR      r1,|L1.12916|
002e7a  5609              LDRSB    r1,[r1,r0]
002e7c  4608              MOV      r0,r1
002e7e  9105              STR      r1,[sp,#0x14]
002e80  f7fffffe          BL       __aeabi_i2f
002e84  f60d12f4          ADD      r2,sp,#0x9f4
002e88  9006              STR      r0,[sp,#0x18]
002e8a  f8dd0b08          LDR      r0,[sp,#0xb08]
002e8e  f8520020          LDR      r0,[r2,r0,LSL #2]
002e92  4601              MOV      r1,r0
002e94  9005              STR      r0,[sp,#0x14]
002e96  9806              LDR      r0,[sp,#0x18]
002e98  f7fffffe          BL       __aeabi_fmul
002e9c  aa56              ADD      r2,sp,#0x158
002e9e  9007              STR      r0,[sp,#0x1c]
002ea0  f8dd0af8          LDR      r0,[sp,#0xaf8]
002ea4  f8520020          LDR      r0,[r2,r0,LSL #2]
002ea8  4601              MOV      r1,r0
002eaa  9006              STR      r0,[sp,#0x18]
002eac  9807              LDR      r0,[sp,#0x1c]
002eae  f7fffffe          BL       __aeabi_fadd
002eb2  4601              MOV      r1,r0
002eb4  aa56              ADD      r2,sp,#0x158
002eb6  f8dd0af8          LDR      r0,[sp,#0xaf8]
002eba  f8421020          STR      r1,[r2,r0,LSL #2]
002ebe  f8dd0b08          LDR      r0,[sp,#0xb08]        ;1332
002ec2  1c40              ADDS     r0,r0,#1              ;1332
002ec4  f8cd0b08          STR      r0,[sp,#0xb08]        ;1332
                  |L1.11976|
002ec8  f8dd0b08          LDR      r0,[sp,#0xb08]        ;1332
002ecc  280c              CMP      r0,#0xc               ;1332
002ece  dbcc              BLT      |L1.11882|
;;;1334               }
;;;1335   
;;;1336               b_z[r2] = d_r_gyro[r2] - c_S_k[r2];
002ed0  a956              ADD      r1,sp,#0x158
002ed2  f8dd0af8          LDR      r0,[sp,#0xaf8]
002ed6  f8511020          LDR      r1,[r1,r0,LSL #2]
002eda  9107              STR      r1,[sp,#0x1c]
002edc  a95c              ADD      r1,sp,#0x170
002ede  f8511020          LDR      r1,[r1,r0,LSL #2]
002ee2  9106              STR      r1,[sp,#0x18]
002ee4  e9dd0106          LDRD     r0,r1,[sp,#0x18]
002ee8  f7fffffe          BL       __aeabi_fsub
002eec  4601              MOV      r1,r0
002eee  aa08              ADD      r2,sp,#0x20
002ef0  f8dd0af8          LDR      r0,[sp,#0xaf8]
002ef4  f8421020          STR      r1,[r2,r0,LSL #2]
002ef8  f8dd0af8          LDR      r0,[sp,#0xaf8]        ;1330
002efc  1c40              ADDS     r0,r0,#1              ;1330
002efe  f8cd0af8          STR      r0,[sp,#0xaf8]        ;1330
                  |L1.12034|
002f02  f8dd0af8          LDR      r0,[sp,#0xaf8]        ;1330
002f06  2806              CMP      r0,#6                 ;1330
002f08  dba6              BLT      |L1.11864|
;;;1337             }
;;;1338   
;;;1339             for (r2 = 0; r2 < 12; r2++) {
002f0a  2000              MOVS     r0,#0
002f0c  f8cd0af8          STR      r0,[sp,#0xaf8]
002f10  e03f              B        |L1.12178|
                  |L1.12050|
;;;1340               maxval = 0.0F;
002f12  2100              MOVS     r1,#0
002f14  f8cd1a58          STR      r1,[sp,#0xa58]
;;;1341               for (i = 0; i < 6; i++) {
002f18  f8cd1b08          STR      r1,[sp,#0xb08]
002f1c  e01e              B        |L1.12124|
                  |L1.12062|
;;;1342                 maxval += b_K_k[r2 + 12 * i] * b_z[i];
002f1e  a908              ADD      r1,sp,#0x20
002f20  f8dd0b08          LDR      r0,[sp,#0xb08]
002f24  f8511020          LDR      r1,[r1,r0,LSL #2]
002f28  9106              STR      r1,[sp,#0x18]
002f2a  220c              MOVS     r2,#0xc
002f2c  f8dd1af8          LDR      r1,[sp,#0xaf8]
002f30  fb021000          MLA      r0,r2,r0,r1
002f34  a90e              ADD      r1,sp,#0x38
002f36  f8511020          LDR      r1,[r1,r0,LSL #2]
002f3a  9105              STR      r1,[sp,#0x14]
002f3c  e9dd0105          LDRD     r0,r1,[sp,#0x14]
002f40  f7fffffe          BL       __aeabi_fmul
002f44  9007              STR      r0,[sp,#0x1c]
002f46  f8dd1a58          LDR      r1,[sp,#0xa58]
002f4a  f7fffffe          BL       __aeabi_fadd
002f4e  f8cd0a58          STR      r0,[sp,#0xa58]
002f52  f8dd0b08          LDR      r0,[sp,#0xb08]        ;1341
002f56  1c40              ADDS     r0,r0,#1              ;1341
002f58  f8cd0b08          STR      r0,[sp,#0xb08]        ;1341
                  |L1.12124|
002f5c  f8dd0b08          LDR      r0,[sp,#0xb08]        ;1341
002f60  2806              CMP      r0,#6                 ;1341
002f62  dbdc              BLT      |L1.12062|
;;;1343               }
;;;1344   
;;;1345               x_apo[r2] = x_apr[r2] + maxval;
002f64  f60d11f4          ADD      r1,sp,#0x9f4
002f68  f8dd0af8          LDR      r0,[sp,#0xaf8]
002f6c  f8511020          LDR      r1,[r1,r0,LSL #2]
002f70  9107              STR      r1,[sp,#0x1c]
002f72  f8dd1a58          LDR      r1,[sp,#0xa58]
002f76  9807              LDR      r0,[sp,#0x1c]
002f78  f7fffffe          BL       __aeabi_fadd
002f7c  4601              MOV      r1,r0
002f7e  4abe              LDR      r2,|L1.12920|
002f80  f8dd0af8          LDR      r0,[sp,#0xaf8]
002f84  f8421020          STR      r1,[r2,r0,LSL #2]
002f88  f8dd0af8          LDR      r0,[sp,#0xaf8]        ;1339
002f8c  1c40              ADDS     r0,r0,#1              ;1339
002f8e  f8cd0af8          STR      r0,[sp,#0xaf8]        ;1339
                  |L1.12178|
002f92  f8dd0af8          LDR      r0,[sp,#0xaf8]        ;1339
002f96  280c              CMP      r0,#0xc               ;1339
002f98  dbbb              BLT      |L1.12050|
;;;1346             }
;;;1347   
;;;1348             /* 'AttitudeEKF:266' P_apo=(eye(12)-K_k*H_k(1:6,1:12))*P_apr; */
;;;1349             memset(&I[0], 0, 144U * sizeof(signed char));
002f9a  2190              MOVS     r1,#0x90
002f9c  f60d1064          ADD      r0,sp,#0x964
002fa0  f7fffffe          BL       __aeabi_memclr4
;;;1350             for (i = 0; i < 12; i++) {
002fa4  2000              MOVS     r0,#0
002fa6  f8cd0b08          STR      r0,[sp,#0xb08]
002faa  e00d              B        |L1.12232|
                  |L1.12204|
;;;1351               I[i + 12 * i] = 1;
002fac  2201              MOVS     r2,#1
002fae  210c              MOVS     r1,#0xc
002fb0  f8dd0b08          LDR      r0,[sp,#0xb08]
002fb4  fb010000          MLA      r0,r1,r0,r0
002fb8  f60d1164          ADD      r1,sp,#0x964
002fbc  540a              STRB     r2,[r1,r0]
002fbe  f8dd0b08          LDR      r0,[sp,#0xb08]        ;1350
002fc2  1c40              ADDS     r0,r0,#1              ;1350
002fc4  f8cd0b08          STR      r0,[sp,#0xb08]        ;1350
                  |L1.12232|
002fc8  f8dd0b08          LDR      r0,[sp,#0xb08]        ;1350
002fcc  280c              CMP      r0,#0xc               ;1350
002fce  dbed              BLT      |L1.12204|
;;;1352             }
;;;1353   
;;;1354             for (r2 = 0; r2 < 12; r2++) {
002fd0  2000              MOVS     r0,#0
002fd2  f8cd0af8          STR      r0,[sp,#0xaf8]
002fd6  e061              B        |L1.12444|
                  |L1.12248|
;;;1355               for (i = 0; i < 12; i++) {
002fd8  2000              MOVS     r0,#0
002fda  f8cd0b08          STR      r0,[sp,#0xb08]
002fde  e054              B        |L1.12426|
                  |L1.12256|
;;;1356                 maxval = 0.0F;
002fe0  2100              MOVS     r1,#0
002fe2  f8cd1a58          STR      r1,[sp,#0xa58]
;;;1357                 for (r1 = 0; r1 < 6; r1++) {
002fe6  f8cd1a54          STR      r1,[sp,#0xa54]
002fea  e027              B        |L1.12348|
                  |L1.12268|
;;;1358                   maxval += b_K_k[r2 + 12 * r1] * (float)f_a[r1 + 6 * i];
002fec  2206              MOVS     r2,#6
002fee  f8dd1a54          LDR      r1,[sp,#0xa54]
002ff2  f8dd0b08          LDR      r0,[sp,#0xb08]
002ff6  fb021000          MLA      r0,r2,r0,r1
002ffa  499e              LDR      r1,|L1.12916|
002ffc  5609              LDRSB    r1,[r1,r0]
002ffe  4608              MOV      r0,r1
003000  9105              STR      r1,[sp,#0x14]
003002  f7fffffe          BL       __aeabi_i2f
003006  9006              STR      r0,[sp,#0x18]
003008  220c              MOVS     r2,#0xc
00300a  f8dd1af8          LDR      r1,[sp,#0xaf8]
00300e  f8dd0a54          LDR      r0,[sp,#0xa54]
003012  fb021000          MLA      r0,r2,r0,r1
003016  a90e              ADD      r1,sp,#0x38
003018  f8511020          LDR      r1,[r1,r0,LSL #2]
00301c  9105              STR      r1,[sp,#0x14]
00301e  9806              LDR      r0,[sp,#0x18]
003020  f7fffffe          BL       __aeabi_fmul
003024  9007              STR      r0,[sp,#0x1c]
003026  f8dd1a58          LDR      r1,[sp,#0xa58]
00302a  f7fffffe          BL       __aeabi_fadd
00302e  f8cd0a58          STR      r0,[sp,#0xa58]
003032  f8dd0a54          LDR      r0,[sp,#0xa54]        ;1357
003036  1c40              ADDS     r0,r0,#1              ;1357
003038  f8cd0a54          STR      r0,[sp,#0xa54]        ;1357
                  |L1.12348|
00303c  f8dd0a54          LDR      r0,[sp,#0xa54]        ;1357
003040  2806              CMP      r0,#6                 ;1357
003042  dbd3              BLT      |L1.12268|
;;;1359                 }
;;;1360   
;;;1361                 A_lin[r2 + 12 * i] = (float)I[r2 + 12 * i] - maxval;
003044  220c              MOVS     r2,#0xc
003046  f8dd1af8          LDR      r1,[sp,#0xaf8]
00304a  f8dd0b08          LDR      r0,[sp,#0xb08]
00304e  fb021000          MLA      r0,r2,r0,r1
003052  f60d1164          ADD      r1,sp,#0x964
003056  5609              LDRSB    r1,[r1,r0]
003058  4608              MOV      r0,r1
00305a  9106              STR      r1,[sp,#0x18]
00305c  f7fffffe          BL       __aeabi_i2f
003060  9007              STR      r0,[sp,#0x1c]
003062  f8dd1a58          LDR      r1,[sp,#0xa58]
003066  f7fffffe          BL       __aeabi_fsub
00306a  4601              MOV      r1,r0
00306c  230c              MOVS     r3,#0xc
00306e  f8dd2af8          LDR      r2,[sp,#0xaf8]
003072  f8dd0b08          LDR      r0,[sp,#0xb08]
003076  fb032000          MLA      r0,r3,r0,r2
00307a  4a80              LDR      r2,|L1.12924|
00307c  f8421020          STR      r1,[r2,r0,LSL #2]
003080  f8dd0b08          LDR      r0,[sp,#0xb08]        ;1355
003084  1c40              ADDS     r0,r0,#1              ;1355
003086  f8cd0b08          STR      r0,[sp,#0xb08]        ;1355
                  |L1.12426|
00308a  f8dd0b08          LDR      r0,[sp,#0xb08]        ;1355
00308e  280c              CMP      r0,#0xc               ;1355
003090  dba6              BLT      |L1.12256|
003092  f8dd0af8          LDR      r0,[sp,#0xaf8]        ;1354
003096  1c40              ADDS     r0,r0,#1              ;1354
003098  f8cd0af8          STR      r0,[sp,#0xaf8]        ;1354
                  |L1.12444|
00309c  f8dd0af8          LDR      r0,[sp,#0xaf8]        ;1354
0030a0  280c              CMP      r0,#0xc               ;1354
0030a2  db99              BLT      |L1.12248|
;;;1362               }
;;;1363             }
;;;1364   
;;;1365             for (r2 = 0; r2 < 12; r2++) {
0030a4  2000              MOVS     r0,#0
0030a6  f8cd0af8          STR      r0,[sp,#0xaf8]
0030aa  e05d              B        |L1.12648|
                  |L1.12460|
;;;1366               for (i = 0; i < 12; i++) {
0030ac  2000              MOVS     r0,#0
0030ae  f8cd0b08          STR      r0,[sp,#0xb08]
0030b2  e050              B        |L1.12630|
                  |L1.12468|
;;;1367                 P_apo[r2 + 12 * i] = 0.0F;
0030b4  2200              MOVS     r2,#0
0030b6  230c              MOVS     r3,#0xc
0030b8  f8dd1af8          LDR      r1,[sp,#0xaf8]
0030bc  f8dd0b08          LDR      r0,[sp,#0xb08]
0030c0  fb031000          MLA      r0,r3,r0,r1
0030c4  496e              LDR      r1,|L1.12928|
0030c6  f8412020          STR      r2,[r1,r0,LSL #2]
;;;1368                 for (r1 = 0; r1 < 12; r1++) {
0030ca  2100              MOVS     r1,#0
0030cc  f8cd1a54          STR      r1,[sp,#0xa54]
0030d0  e038              B        |L1.12612|
                  |L1.12498|
;;;1369                   P_apo[r2 + 12 * i] += A_lin[r2 + 12 * r1] * P_apr[r1 + 12 * i];
0030d2  220c              MOVS     r2,#0xc
0030d4  f8dd1a54          LDR      r1,[sp,#0xa54]
0030d8  f8dd0b08          LDR      r0,[sp,#0xb08]
0030dc  fb021000          MLA      r0,r2,r0,r1
0030e0  4968              LDR      r1,|L1.12932|
0030e2  f8511020          LDR      r1,[r1,r0,LSL #2]
0030e6  9106              STR      r1,[sp,#0x18]
0030e8  f8dd1af8          LDR      r1,[sp,#0xaf8]
0030ec  f8dd0a54          LDR      r0,[sp,#0xa54]
0030f0  fb021000          MLA      r0,r2,r0,r1
0030f4  4961              LDR      r1,|L1.12924|
0030f6  f8511020          LDR      r1,[r1,r0,LSL #2]
0030fa  9105              STR      r1,[sp,#0x14]
0030fc  e9dd0105          LDRD     r0,r1,[sp,#0x14]
003100  f7fffffe          BL       __aeabi_fmul
003104  9007              STR      r0,[sp,#0x1c]
003106  220c              MOVS     r2,#0xc
003108  f8dd1b08          LDR      r1,[sp,#0xb08]
00310c  f8dd0af8          LDR      r0,[sp,#0xaf8]
003110  fb020001          MLA      r0,r2,r1,r0
003114  495a              LDR      r1,|L1.12928|
003116  f8510020          LDR      r0,[r1,r0,LSL #2]
00311a  4601              MOV      r1,r0
00311c  9006              STR      r0,[sp,#0x18]
00311e  9807              LDR      r0,[sp,#0x1c]
003120  f7fffffe          BL       __aeabi_fadd
003124  4601              MOV      r1,r0
003126  230c              MOVS     r3,#0xc
003128  f8dd2af8          LDR      r2,[sp,#0xaf8]
00312c  f8dd0b08          LDR      r0,[sp,#0xb08]
003130  fb032000          MLA      r0,r3,r0,r2
003134  4a52              LDR      r2,|L1.12928|
003136  f8421020          STR      r1,[r2,r0,LSL #2]
00313a  f8dd0a54          LDR      r0,[sp,#0xa54]        ;1368
00313e  1c40              ADDS     r0,r0,#1              ;1368
003140  f8cd0a54          STR      r0,[sp,#0xa54]        ;1368
                  |L1.12612|
003144  f8dd0a54          LDR      r0,[sp,#0xa54]        ;1368
003148  280c              CMP      r0,#0xc               ;1368
00314a  dbc2              BLT      |L1.12498|
00314c  f8dd0b08          LDR      r0,[sp,#0xb08]        ;1366
003150  1c40              ADDS     r0,r0,#1              ;1366
003152  f8cd0b08          STR      r0,[sp,#0xb08]        ;1366
                  |L1.12630|
003156  f8dd0b08          LDR      r0,[sp,#0xb08]        ;1366
00315a  280c              CMP      r0,#0xc               ;1366
00315c  dbaa              BLT      |L1.12468|
00315e  f8dd0af8          LDR      r0,[sp,#0xaf8]        ;1365
003162  1c40              ADDS     r0,r0,#1              ;1365
003164  f8cd0af8          STR      r0,[sp,#0xaf8]        ;1365
                  |L1.12648|
003168  f8dd0af8          LDR      r0,[sp,#0xaf8]        ;1365
00316c  280c              CMP      r0,#0xc               ;1365
00316e  db9d              BLT      |L1.12460|
003170  e01b              B        |L1.12714|
                  |L1.12658|
;;;1370                 }
;;;1371               }
;;;1372             }
;;;1373           } else {
;;;1374             /* 'AttitudeEKF:267' else */
;;;1375             /* 'AttitudeEKF:268' x_apo=x_apr; */
;;;1376             for (i = 0; i < 12; i++) {
003172  2000              MOVS     r0,#0
003174  f8cd0b08          STR      r0,[sp,#0xb08]
003178  e00d              B        |L1.12694|
                  |L1.12666|
;;;1377               x_apo[i] = x_apr[i];
00317a  f60d11f4          ADD      r1,sp,#0x9f4
00317e  f8dd0b08          LDR      r0,[sp,#0xb08]
003182  f8511020          LDR      r1,[r1,r0,LSL #2]
003186  4a3c              LDR      r2,|L1.12920|
003188  f8421020          STR      r1,[r2,r0,LSL #2]
00318c  f8dd0b08          LDR      r0,[sp,#0xb08]        ;1376
003190  1c40              ADDS     r0,r0,#1              ;1376
003192  f8cd0b08          STR      r0,[sp,#0xb08]        ;1376
                  |L1.12694|
003196  f8dd0b08          LDR      r0,[sp,#0xb08]        ;1376
00319a  280c              CMP      r0,#0xc               ;1376
00319c  dbed              BLT      |L1.12666|
;;;1378             }
;;;1379   
;;;1380             /* 'AttitudeEKF:269' P_apo=P_apr; */
;;;1381             memcpy(&P_apo[0], &P_apr[0], 144U * sizeof(float));
00319e  f44f7210          MOV      r2,#0x240
0031a2  4938              LDR      r1,|L1.12932|
0031a4  4836              LDR      r0,|L1.12928|
0031a6  f7fffffe          BL       __aeabi_memcpy4
                  |L1.12714|
;;;1382           }
;;;1383         }
;;;1384       }
;;;1385     }
;;;1386   
;;;1387     /* % euler anglels extraction */
;;;1388     /* 'AttitudeEKF:278' z_n_b = -x_apo(7:9)./norm(x_apo(7:9)); */
;;;1389     maxval = norm(*(float (*)[3])&x_apo[6]);
0031aa  4833              LDR      r0,|L1.12920|
0031ac  3018              ADDS     r0,r0,#0x18
0031ae  f7fffffe          BL       norm
0031b2  f8cd0a58          STR      r0,[sp,#0xa58]
;;;1390     a21 = norm(*(float (*)[3])&x_apo[9]);
0031b6  4830              LDR      r0,|L1.12920|
0031b8  3024              ADDS     r0,r0,#0x24
0031ba  f7fffffe          BL       norm
0031be  90ce              STR      r0,[sp,#0x338]
;;;1391     for (i = 0; i < 3; i++) {
0031c0  2100              MOVS     r1,#0
0031c2  f8cd1b08          STR      r1,[sp,#0xb08]
0031c6  e02b              B        |L1.12832|
                  |L1.12744|
;;;1392       /* 'AttitudeEKF:279' m_n_b = x_apo(10:12)./norm(x_apo(10:12)); */
;;;1393       muk[i] = -x_apo[i + 6] / maxval;
0031c8  492b              LDR      r1,|L1.12920|
0031ca  f8dd0b08          LDR      r0,[sp,#0xb08]
0031ce  1d80              ADDS     r0,r0,#6
0031d0  f8510020          LDR      r0,[r1,r0,LSL #2]
0031d4  f0804100          EOR      r1,r0,#0x80000000
0031d8  9107              STR      r1,[sp,#0x1c]
0031da  f8dd1a58          LDR      r1,[sp,#0xa58]
0031de  9807              LDR      r0,[sp,#0x1c]
0031e0  f7fffffe          BL       __aeabi_fdiv
0031e4  4601              MOV      r1,r0
0031e6  f50d622e          ADD      r2,sp,#0xae0
0031ea  f8dd0b08          LDR      r0,[sp,#0xb08]
0031ee  f8421020          STR      r1,[r2,r0,LSL #2]
;;;1394       zek[i] = x_apo[i + 9] / a21;
0031f2  4921              LDR      r1,|L1.12920|
0031f4  f8dd0b08          LDR      r0,[sp,#0xb08]
0031f8  3009              ADDS     r0,r0,#9
0031fa  f8511020          LDR      r1,[r1,r0,LSL #2]
0031fe  9107              STR      r1,[sp,#0x1c]
003200  99ce              LDR      r1,[sp,#0x338]
003202  9807              LDR      r0,[sp,#0x1c]
003204  f7fffffe          BL       __aeabi_fdiv
003208  4601              MOV      r1,r0
00320a  f60d22ec          ADD      r2,sp,#0xaec
00320e  f8dd0b08          LDR      r0,[sp,#0xb08]
003212  f8421020          STR      r1,[r2,r0,LSL #2]
003216  f8dd0b08          LDR      r0,[sp,#0xb08]        ;1391
00321a  1c40              ADDS     r0,r0,#1              ;1391
00321c  f8cd0b08          STR      r0,[sp,#0xb08]        ;1391
                  |L1.12832|
003220  f8dd0b08          LDR      r0,[sp,#0xb08]        ;1391
003224  2803              CMP      r0,#3                 ;1391
003226  dbcf              BLT      |L1.12744|
;;;1395     }
;;;1396   
;;;1397     /* 'AttitudeEKF:281' y_n_b=cross(z_n_b,m_n_b); */
;;;1398     wak[0] = muk[1] * zek[2] - muk[2] * zek[1];
003228  f8dd1af0          LDR      r1,[sp,#0xaf0]
00322c  9105              STR      r1,[sp,#0x14]
00322e  f8dd1ae8          LDR      r1,[sp,#0xae8]
003232  9104              STR      r1,[sp,#0x10]
003234  e9dd0104          LDRD     r0,r1,[sp,#0x10]
003238  f7fffffe          BL       __aeabi_fmul
00323c  9007              STR      r0,[sp,#0x1c]
00323e  f8dd1af4          LDR      r1,[sp,#0xaf4]
003242  9105              STR      r1,[sp,#0x14]
003244  f8dd1ae4          LDR      r1,[sp,#0xae4]
003248  9104              STR      r1,[sp,#0x10]
00324a  e9dd0104          LDRD     r0,r1,[sp,#0x10]
00324e  f7fffffe          BL       __aeabi_fmul
003252  9006              STR      r0,[sp,#0x18]
003254  9907              LDR      r1,[sp,#0x1c]
003256  f7fffffe          BL       __aeabi_fsub
00325a  f8cd0ab0          STR      r0,[sp,#0xab0]
;;;1399     wak[1] = muk[2] * zek[0] - muk[0] * zek[2];
00325e  f8dd1af4          LDR      r1,[sp,#0xaf4]
003262  9105              STR      r1,[sp,#0x14]
003264  f8dd1ae0          LDR      r1,[sp,#0xae0]
003268  9104              STR      r1,[sp,#0x10]
00326a  e9dd0104          LDRD     r0,r1,[sp,#0x10]
00326e  f7fffffe          BL       __aeabi_fmul
003272  e009              B        |L1.12936|
                  |L1.12916|
                          DCD      ||f_a||
                  |L1.12920|
                          DCD      x_apo
                  |L1.12924|
                          DCD      A_lin
                  |L1.12928|
                          DCD      P_apo
                  |L1.12932|
                          DCD      P_apr
                  |L1.12936|
003288  9007              STR      r0,[sp,#0x1c]
00328a  f8dd0aec          LDR      r0,[sp,#0xaec]
00328e  9005              STR      r0,[sp,#0x14]
003290  f8dd0ae8          LDR      r0,[sp,#0xae8]
003294  9004              STR      r0,[sp,#0x10]
003296  9905              LDR      r1,[sp,#0x14]
003298  f7fffffe          BL       __aeabi_fmul
00329c  9006              STR      r0,[sp,#0x18]
00329e  9907              LDR      r1,[sp,#0x1c]
0032a0  f7fffffe          BL       __aeabi_fsub
0032a4  f8cd0ab4          STR      r0,[sp,#0xab4]
;;;1400     wak[2] = muk[0] * zek[1] - muk[1] * zek[0];
0032a8  f8dd1aec          LDR      r1,[sp,#0xaec]
0032ac  9105              STR      r1,[sp,#0x14]
0032ae  f8dd1ae4          LDR      r1,[sp,#0xae4]
0032b2  9104              STR      r1,[sp,#0x10]
0032b4  e9dd0104          LDRD     r0,r1,[sp,#0x10]
0032b8  f7fffffe          BL       __aeabi_fmul
0032bc  9007              STR      r0,[sp,#0x1c]
0032be  f8dd0af0          LDR      r0,[sp,#0xaf0]
0032c2  9005              STR      r0,[sp,#0x14]
0032c4  f8dd0ae0          LDR      r0,[sp,#0xae0]
0032c8  9004              STR      r0,[sp,#0x10]
0032ca  9905              LDR      r1,[sp,#0x14]
0032cc  f7fffffe          BL       __aeabi_fmul
0032d0  9006              STR      r0,[sp,#0x18]
0032d2  9907              LDR      r1,[sp,#0x1c]
0032d4  f7fffffe          BL       __aeabi_fsub
0032d8  f8cd0ab8          STR      r0,[sp,#0xab8]
;;;1401   
;;;1402     /* 'AttitudeEKF:282' y_n_b=y_n_b./norm(y_n_b); */
;;;1403     maxval = norm(wak);
0032dc  f50d602b          ADD      r0,sp,#0xab0
0032e0  f7fffffe          BL       norm
0032e4  f8cd0a58          STR      r0,[sp,#0xa58]
;;;1404     for (r2 = 0; r2 < 3; r2++) {
0032e8  2100              MOVS     r1,#0
0032ea  f8cd1af8          STR      r1,[sp,#0xaf8]
0032ee  e017              B        |L1.13088|
                  |L1.13040|
;;;1405       wak[r2] /= maxval;
0032f0  f50d612b          ADD      r1,sp,#0xab0
0032f4  f8dd0af8          LDR      r0,[sp,#0xaf8]
0032f8  f8511020          LDR      r1,[r1,r0,LSL #2]
0032fc  9107              STR      r1,[sp,#0x1c]
0032fe  f8dd1a58          LDR      r1,[sp,#0xa58]
003302  9807              LDR      r0,[sp,#0x1c]
003304  f7fffffe          BL       __aeabi_fdiv
003308  4601              MOV      r1,r0
00330a  f50d622b          ADD      r2,sp,#0xab0
00330e  f8dd0af8          LDR      r0,[sp,#0xaf8]
003312  f8421020          STR      r1,[r2,r0,LSL #2]
003316  f8dd0af8          LDR      r0,[sp,#0xaf8]        ;1404
00331a  1c40              ADDS     r0,r0,#1              ;1404
00331c  f8cd0af8          STR      r0,[sp,#0xaf8]        ;1404
                  |L1.13088|
003320  f8dd0af8          LDR      r0,[sp,#0xaf8]        ;1404
003324  2803              CMP      r0,#3                 ;1404
003326  dbe3              BLT      |L1.13040|
;;;1406     }
;;;1407   
;;;1408     /* 'AttitudeEKF:284' x_n_b=(cross(y_n_b,z_n_b)); */
;;;1409     zek[0] = wak[1] * muk[2] - wak[2] * muk[1];
003328  f8dd1ae4          LDR      r1,[sp,#0xae4]
00332c  9105              STR      r1,[sp,#0x14]
00332e  f8dd1ab8          LDR      r1,[sp,#0xab8]
003332  9104              STR      r1,[sp,#0x10]
003334  e9dd0104          LDRD     r0,r1,[sp,#0x10]
003338  f7fffffe          BL       __aeabi_fmul
00333c  9007              STR      r0,[sp,#0x1c]
00333e  f8dd0ae8          LDR      r0,[sp,#0xae8]
003342  9005              STR      r0,[sp,#0x14]
003344  f8dd0ab4          LDR      r0,[sp,#0xab4]
003348  9004              STR      r0,[sp,#0x10]
00334a  9905              LDR      r1,[sp,#0x14]
00334c  f7fffffe          BL       __aeabi_fmul
003350  9006              STR      r0,[sp,#0x18]
003352  9907              LDR      r1,[sp,#0x1c]
003354  f7fffffe          BL       __aeabi_fsub
003358  f8cd0aec          STR      r0,[sp,#0xaec]
;;;1410     zek[1] = wak[2] * muk[0] - wak[0] * muk[2];
00335c  f8dd1ae8          LDR      r1,[sp,#0xae8]
003360  9105              STR      r1,[sp,#0x14]
003362  f8dd1ab0          LDR      r1,[sp,#0xab0]
003366  9104              STR      r1,[sp,#0x10]
003368  e9dd0104          LDRD     r0,r1,[sp,#0x10]
00336c  f7fffffe          BL       __aeabi_fmul
003370  9007              STR      r0,[sp,#0x1c]
003372  f8dd1ae0          LDR      r1,[sp,#0xae0]
003376  9105              STR      r1,[sp,#0x14]
003378  f8dd1ab8          LDR      r1,[sp,#0xab8]
00337c  9104              STR      r1,[sp,#0x10]
00337e  e9dd0104          LDRD     r0,r1,[sp,#0x10]
003382  f7fffffe          BL       __aeabi_fmul
003386  9006              STR      r0,[sp,#0x18]
003388  9907              LDR      r1,[sp,#0x1c]
00338a  f7fffffe          BL       __aeabi_fsub
00338e  f8cd0af0          STR      r0,[sp,#0xaf0]
;;;1411     zek[2] = wak[0] * muk[1] - wak[1] * muk[0];
003392  f8dd1ae0          LDR      r1,[sp,#0xae0]
003396  9105              STR      r1,[sp,#0x14]
003398  f8dd1ab4          LDR      r1,[sp,#0xab4]
00339c  9104              STR      r1,[sp,#0x10]
00339e  e9dd0104          LDRD     r0,r1,[sp,#0x10]
0033a2  f7fffffe          BL       __aeabi_fmul
0033a6  9007              STR      r0,[sp,#0x1c]
0033a8  f8dd0ae4          LDR      r0,[sp,#0xae4]
0033ac  9005              STR      r0,[sp,#0x14]
0033ae  f8dd0ab0          LDR      r0,[sp,#0xab0]
0033b2  9004              STR      r0,[sp,#0x10]
0033b4  9905              LDR      r1,[sp,#0x14]
0033b6  f7fffffe          BL       __aeabi_fmul
0033ba  9006              STR      r0,[sp,#0x18]
0033bc  9907              LDR      r1,[sp,#0x1c]
0033be  f7fffffe          BL       __aeabi_fsub
0033c2  f8cd0af4          STR      r0,[sp,#0xaf4]
;;;1412   
;;;1413     /* 'AttitudeEKF:285' x_n_b=x_n_b./norm(x_n_b); */
;;;1414     maxval = norm(zek);
0033c6  f60d20ec          ADD      r0,sp,#0xaec
0033ca  f7fffffe          BL       norm
0033ce  f8cd0a58          STR      r0,[sp,#0xa58]
;;;1415     for (r2 = 0; r2 < 3; r2++) {
0033d2  2100              MOVS     r1,#0
0033d4  f8cd1af8          STR      r1,[sp,#0xaf8]
0033d8  e017              B        |L1.13322|
                  |L1.13274|
;;;1416       zek[r2] /= maxval;
0033da  f60d21ec          ADD      r1,sp,#0xaec
0033de  f8dd0af8          LDR      r0,[sp,#0xaf8]
0033e2  f8511020          LDR      r1,[r1,r0,LSL #2]
0033e6  9107              STR      r1,[sp,#0x1c]
0033e8  f8dd1a58          LDR      r1,[sp,#0xa58]
0033ec  9807              LDR      r0,[sp,#0x1c]
0033ee  f7fffffe          BL       __aeabi_fdiv
0033f2  4601              MOV      r1,r0
0033f4  f60d22ec          ADD      r2,sp,#0xaec
0033f8  f8dd0af8          LDR      r0,[sp,#0xaf8]
0033fc  f8421020          STR      r1,[r2,r0,LSL #2]
003400  f8dd0af8          LDR      r0,[sp,#0xaf8]        ;1415
003404  1c40              ADDS     r0,r0,#1              ;1415
003406  f8cd0af8          STR      r0,[sp,#0xaf8]        ;1415
                  |L1.13322|
00340a  f8dd0af8          LDR      r0,[sp,#0xaf8]        ;1415
00340e  2803              CMP      r0,#3                 ;1415
003410  dbe3              BLT      |L1.13274|
;;;1417     }
;;;1418   
;;;1419     /* 'AttitudeEKF:288' xa_apo=x_apo; */
;;;1420     for (i = 0; i < 12; i++) {
003412  2000              MOVS     r0,#0
003414  f8cd0b08          STR      r0,[sp,#0xb08]
003418  e00d              B        |L1.13366|
                  |L1.13338|
;;;1421       xa_apo[i] = x_apo[i];
00341a  494a              LDR      r1,|L1.13636|
00341c  f8dd0b08          LDR      r0,[sp,#0xb08]
003420  f8512020          LDR      r2,[r1,r0,LSL #2]
003424  f8dd1b44          LDR      r1,[sp,#0xb44]
003428  f8412020          STR      r2,[r1,r0,LSL #2]
00342c  f8dd0b08          LDR      r0,[sp,#0xb08]        ;1420
003430  1c40              ADDS     r0,r0,#1              ;1420
003432  f8cd0b08          STR      r0,[sp,#0xb08]        ;1420
                  |L1.13366|
003436  f8dd0b08          LDR      r0,[sp,#0xb08]        ;1420
00343a  280c              CMP      r0,#0xc               ;1420
00343c  dbed              BLT      |L1.13338|
;;;1422     }
;;;1423   
;;;1424     /* 'AttitudeEKF:289' Pa_apo=P_apo; */
;;;1425     memcpy(&Pa_apo[0], &P_apo[0], 144U * sizeof(float));
00343e  f44f7210          MOV      r2,#0x240
003442  4941              LDR      r1,|L1.13640|
003444  f8dd0b48          LDR      r0,[sp,#0xb48]
003448  f7fffffe          BL       __aeabi_memcpy4
;;;1426   
;;;1427     /*  rotation matrix from earth to body system */
;;;1428     /* 'AttitudeEKF:291' Rot_matrix=[x_n_b,y_n_b,z_n_b]; */
;;;1429     for (r2 = 0; r2 < 3; r2++) {
00344c  2100              MOVS     r1,#0
00344e  f8cd1af8          STR      r1,[sp,#0xaf8]
003452  e024              B        |L1.13470|
                  |L1.13396|
;;;1430       Rot_matrix[r2] = zek[r2];
003454  f60d21ec          ADD      r1,sp,#0xaec
003458  f8dd0af8          LDR      r0,[sp,#0xaf8]
00345c  f8512020          LDR      r2,[r1,r0,LSL #2]
003460  f8dd1b4c          LDR      r1,[sp,#0xb4c]
003464  f8412020          STR      r2,[r1,r0,LSL #2]
;;;1431       Rot_matrix[3 + r2] = wak[r2];
003468  f50d612b          ADD      r1,sp,#0xab0
00346c  f8dd0af8          LDR      r0,[sp,#0xaf8]
003470  f8512020          LDR      r2,[r1,r0,LSL #2]
003474  1cc1              ADDS     r1,r0,#3
003476  f8dd0b4c          LDR      r0,[sp,#0xb4c]
00347a  f8402021          STR      r2,[r0,r1,LSL #2]
;;;1432       Rot_matrix[6 + r2] = muk[r2];
00347e  f50d612e          ADD      r1,sp,#0xae0
003482  f8dd0af8          LDR      r0,[sp,#0xaf8]
003486  f8512020          LDR      r2,[r1,r0,LSL #2]
00348a  1d81              ADDS     r1,r0,#6
00348c  f8dd0b4c          LDR      r0,[sp,#0xb4c]
003490  f8402021          STR      r2,[r0,r1,LSL #2]
003494  f8dd0af8          LDR      r0,[sp,#0xaf8]        ;1429
003498  1c40              ADDS     r0,r0,#1              ;1429
00349a  f8cd0af8          STR      r0,[sp,#0xaf8]        ;1429
                  |L1.13470|
00349e  f8dd0af8          LDR      r0,[sp,#0xaf8]        ;1429
0034a2  2803              CMP      r0,#3                 ;1429
0034a4  dbd6              BLT      |L1.13396|
;;;1433     }
;;;1434   
;;;1435     /* 'AttitudeEKF:294' phi=atan2(Rot_matrix(2,3),Rot_matrix(3,3)); */
;;;1436     /* 'AttitudeEKF:295' theta=-asin(Rot_matrix(1,3)); */
;;;1437     /* 'AttitudeEKF:296' psi=atan2(Rot_matrix(1,2),Rot_matrix(1,1)); */
;;;1438     /* 'AttitudeEKF:297' eulerAngles=[phi;theta;psi]; */
;;;1439     eulerAngles[0] = (real32_T)atan2(Rot_matrix[7], Rot_matrix[8]);
0034a6  f8dd0b4c          LDR      r0,[sp,#0xb4c]
0034aa  6a01              LDR      r1,[r0,#0x20]
0034ac  4608              MOV      r0,r1
0034ae  9101              STR      r1,[sp,#4]
0034b0  f7fffffe          BL       __aeabi_f2d
0034b4  e9cd0104          STRD     r0,r1,[sp,#0x10]
0034b8  f8dd0b4c          LDR      r0,[sp,#0xb4c]
0034bc  69c0              LDR      r0,[r0,#0x1c]
0034be  9001              STR      r0,[sp,#4]
0034c0  f7fffffe          BL       __aeabi_f2d
0034c4  e9cd0102          STRD     r0,r1,[sp,#8]
0034c8  e9dd2304          LDRD     r2,r3,[sp,#0x10]
0034cc  f7fffffe          BL       atan2
0034d0  e9cd0106          STRD     r0,r1,[sp,#0x18]
0034d4  f7fffffe          BL       __aeabi_d2f
0034d8  f8dd1b50          LDR      r1,[sp,#0xb50]
0034dc  6008              STR      r0,[r1,#0]
;;;1440     eulerAngles[1] = -(real32_T)asin(Rot_matrix[6]);
0034de  f8dd0b4c          LDR      r0,[sp,#0xb4c]
0034e2  6980              LDR      r0,[r0,#0x18]
0034e4  9003              STR      r0,[sp,#0xc]
0034e6  f7fffffe          BL       __aeabi_f2d
0034ea  e9cd0104          STRD     r0,r1,[sp,#0x10]
0034ee  f7fffffe          BL       asin
0034f2  e9cd0106          STRD     r0,r1,[sp,#0x18]
0034f6  f7fffffe          BL       __aeabi_d2f
0034fa  f0804200          EOR      r2,r0,#0x80000000
0034fe  f8dd0b50          LDR      r0,[sp,#0xb50]
003502  6042              STR      r2,[r0,#4]
;;;1441     eulerAngles[2] = (real32_T)atan2(Rot_matrix[3], Rot_matrix[0]);
003504  f8dd0b4c          LDR      r0,[sp,#0xb4c]
003508  6800              LDR      r0,[r0,#0]
00350a  9001              STR      r0,[sp,#4]
00350c  f7fffffe          BL       __aeabi_f2d
003510  e9cd0104          STRD     r0,r1,[sp,#0x10]
003514  f8dd0b4c          LDR      r0,[sp,#0xb4c]
003518  68c1              LDR      r1,[r0,#0xc]
00351a  4608              MOV      r0,r1
00351c  9101              STR      r1,[sp,#4]
00351e  f7fffffe          BL       __aeabi_f2d
003522  e9cd0102          STRD     r0,r1,[sp,#8]
003526  e9dd2304          LDRD     r2,r3,[sp,#0x10]
00352a  f7fffffe          BL       atan2
00352e  e9cd0106          STRD     r0,r1,[sp,#0x18]
003532  f7fffffe          BL       __aeabi_d2f
003536  f8dd1b50          LDR      r1,[sp,#0xb50]
00353a  6088              STR      r0,[r1,#8]
;;;1442   }
00353c  f60d3d1c          ADD      sp,sp,#0xb1c
003540  bd00              POP      {pc}
;;;1443   
                          ENDP

003542  0000              DCW      0x0000
                  |L1.13636|
                          DCD      x_apo
                  |L1.13640|
                          DCD      P_apo

                          AREA ||i.AttitudeEKF_init||, CODE, READONLY, ALIGN=2

                  AttitudeEKF_init PROC
;;;28     /* Function Definitions */
;;;29     static void AttitudeEKF_init(void)
000000  2000              MOVS     r0,#0
;;;30     {
;;;31       int i;
;;;32       static const float fv5[12] = { 0.0F, 0.0F, 0.0F, 0.0F, 0.0F, 0.0F, 0.0F, 0.0F,
;;;33         -9.81F, 1.0F, 0.0F, 0.0F };
;;;34     
;;;35       for (i = 0; i < 12; i++) {
000002  e006              B        |L2.18|
                  |L2.4|
;;;36         x_apo[i] = fv5[i];
000004  4909              LDR      r1,|L2.44|
000006  f8511020          LDR      r1,[r1,r0,LSL #2]
00000a  4a09              LDR      r2,|L2.48|
00000c  f8421020          STR      r1,[r2,r0,LSL #2]
000010  1c40              ADDS     r0,r0,#1              ;35
                  |L2.18|
000012  280c              CMP      r0,#0xc               ;35
000014  dbf6              BLT      |L2.4|
;;;37       }
;;;38     
;;;39       for (i = 0; i < 144; i++) {
000016  2000              MOVS     r0,#0
000018  e004              B        |L2.36|
                  |L2.26|
;;;40         P_apo[i] = 200.0F;
00001a  4906              LDR      r1,|L2.52|
00001c  4a06              LDR      r2,|L2.56|
00001e  f8421020          STR      r1,[r2,r0,LSL #2]
000022  1c40              ADDS     r0,r0,#1              ;39
                  |L2.36|
000024  2890              CMP      r0,#0x90              ;39
000026  dbf8              BLT      |L2.26|
;;;41       }
;;;42     }
000028  4770              BX       lr
;;;43     
                          ENDP

00002a  0000              DCW      0x0000
                  |L2.44|
                          DCD      ||fv5||
                  |L2.48|
                          DCD      x_apo
                  |L2.52|
                          DCD      0x43480000
                  |L2.56|
                          DCD      P_apo

                          AREA ||i.AttitudeEKF_initialize||, CODE, READONLY, ALIGN=2

                  AttitudeEKF_initialize PROC
;;;1443   
;;;1444   void AttitudeEKF_initialize(void)
000000  b510              PUSH     {r4,lr}
;;;1445   {
;;;1446     Q_not_empty = FALSE;
000002  2000              MOVS     r0,#0
000004  4903              LDR      r1,|L3.20|
000006  7008              STRB     r0,[r1,#0]
;;;1447     Ji_not_empty = FALSE;
000008  4903              LDR      r1,|L3.24|
00000a  7008              STRB     r0,[r1,#0]
;;;1448     AttitudeEKF_init();
00000c  f7fffffe          BL       AttitudeEKF_init
;;;1449   }
000010  bd10              POP      {r4,pc}
;;;1450   
                          ENDP

000012  0000              DCW      0x0000
                  |L3.20|
                          DCD      Q_not_empty
                  |L3.24|
                          DCD      Ji_not_empty

                          AREA ||i.AttitudeEKF_terminate||, CODE, READONLY, ALIGN=1

                  AttitudeEKF_terminate PROC
;;;1450   
;;;1451   void AttitudeEKF_terminate(void)
000000  4770              BX       lr
;;;1452   {
;;;1453     /* (no terminate code required) */
;;;1454   }
;;;1455   
                          ENDP


                          AREA ||i.b_mrdivide||, CODE, READONLY, ALIGN=1

                  b_mrdivide PROC
;;;46      */
;;;47     static void b_mrdivide(const float A[72], const float B[36], float y[72])
000000  e92d4ff7          PUSH     {r0-r2,r4-r11,lr}
;;;48     {
000004  b0f2              SUB      sp,sp,#0x1c8
;;;49       float b_A[36];
;;;50       signed char ipiv[6];
;;;51       int i1;
;;;52       int iy;
;;;53       int j;
;;;54       int c;
;;;55       int ix;
;;;56       float temp;
;;;57       int k;
;;;58       float s;
;;;59       int jy;
;;;60       int ijA;
;;;61       float Y[72];
;;;62       for (i1 = 0; i1 < 6; i1++) {
000006  f04f0900          MOV      r9,#0
00000a  e018              B        |L5.62|
                  |L5.12|
;;;63         for (iy = 0; iy < 6; iy++) {
00000c  2400              MOVS     r4,#0
00000e  e00c              B        |L5.42|
                  |L5.16|
;;;64           b_A[iy + 6 * i1] = B[i1 + 6 * iy];
000010  2006              MOVS     r0,#6
000012  fb009104          MLA      r1,r0,r4,r9
000016  9873              LDR      r0,[sp,#0x1cc]
000018  f8500021          LDR      r0,[r0,r1,LSL #2]
00001c  2106              MOVS     r1,#6
00001e  fb014109          MLA      r1,r1,r9,r4
000022  aa4e              ADD      r2,sp,#0x138
000024  f8420021          STR      r0,[r2,r1,LSL #2]
000028  1c64              ADDS     r4,r4,#1              ;63
                  |L5.42|
00002a  2c06              CMP      r4,#6                 ;63
00002c  dbf0              BLT      |L5.16|
;;;65         }
;;;66     
;;;67         ipiv[i1] = (signed char)(1 + i1);
00002e  f1090001          ADD      r0,r9,#1
000032  b240              SXTB     r0,r0
000034  a94c              ADD      r1,sp,#0x130
000036  f8010009          STRB     r0,[r1,r9]
00003a  f1090901          ADD      r9,r9,#1              ;62
                  |L5.62|
00003e  f1b90f06          CMP      r9,#6                 ;62
000042  dbe3              BLT      |L5.12|
;;;68       }
;;;69     
;;;70       for (j = 0; j < 5; j++) {
000044  2600              MOVS     r6,#0
000046  e0a1              B        |L5.396|
                  |L5.72|
;;;71         c = j * 7;
000048  ebc608c6          RSB      r8,r6,r6,LSL #3
;;;72         iy = 0;
00004c  2400              MOVS     r4,#0
;;;73         ix = c;
00004e  46c2              MOV      r10,r8
;;;74         temp = (real32_T)fabs(b_A[c]);
000050  a94e              ADD      r1,sp,#0x138
000052  f8510028          LDR      r0,[r1,r8,LSL #2]
000056  f7fffffe          BL       __aeabi_f2d
00005a  f0214100          BIC      r1,r1,#0x80000000
00005e  e9cd0100          STRD     r0,r1,[sp,#0]
000062  f7fffffe          BL       __aeabi_d2f
000066  4683              MOV      r11,r0
;;;75         for (k = 2; k <= 6 - j; k++) {
000068  2702              MOVS     r7,#2
00006a  e016              B        |L5.154|
                  |L5.108|
;;;76           ix++;
00006c  f10a0a01          ADD      r10,r10,#1
;;;77           s = (real32_T)fabs(b_A[ix]);
000070  a94e              ADD      r1,sp,#0x138
000072  f851002a          LDR      r0,[r1,r10,LSL #2]
000076  f7fffffe          BL       __aeabi_f2d
00007a  f0214100          BIC      r1,r1,#0x80000000
00007e  e9cd0100          STRD     r0,r1,[sp,#0]
000082  f7fffffe          BL       __aeabi_d2f
000086  904b              STR      r0,[sp,#0x12c]
;;;78           if (s > temp) {
000088  4659              MOV      r1,r11
00008a  984b              LDR      r0,[sp,#0x12c]
00008c  f7fffffe          BL       __aeabi_cfrcmple
000090  d202              BCS      |L5.152|
;;;79             iy = k - 1;
000092  1e7c              SUBS     r4,r7,#1
;;;80             temp = s;
000094  f8ddb12c          LDR      r11,[sp,#0x12c]
                  |L5.152|
000098  1c7f              ADDS     r7,r7,#1              ;75
                  |L5.154|
00009a  f1c60006          RSB      r0,r6,#6              ;75
00009e  42b8              CMP      r0,r7                 ;75
0000a0  dae4              BGE      |L5.108|
;;;81           }
;;;82         }
;;;83     
;;;84         if (b_A[c + iy] != 0.0F) {
0000a2  eb080104          ADD      r1,r8,r4
0000a6  aa4e              ADD      r2,sp,#0x138
0000a8  f8520021          LDR      r0,[r2,r1,LSL #2]
0000ac  2100              MOVS     r1,#0
0000ae  f7fffffe          BL       __aeabi_cfcmpeq
0000b2  d02f              BEQ      |L5.276|
;;;85           if (iy != 0) {
0000b4  b1cc              CBZ      r4,|L5.234|
;;;86             ipiv[j] = (signed char)((j + iy) + 1);
0000b6  1930              ADDS     r0,r6,r4
0000b8  1c40              ADDS     r0,r0,#1
0000ba  b240              SXTB     r0,r0
0000bc  a94c              ADD      r1,sp,#0x130
0000be  5588              STRB     r0,[r1,r6]
;;;87             ix = j;
0000c0  46b2              MOV      r10,r6
;;;88             iy += j;
0000c2  4434              ADD      r4,r4,r6
;;;89             for (k = 0; k < 6; k++) {
0000c4  2700              MOVS     r7,#0
0000c6  e00e              B        |L5.230|
                  |L5.200|
;;;90               temp = b_A[ix];
0000c8  a84e              ADD      r0,sp,#0x138
0000ca  f850b02a          LDR      r11,[r0,r10,LSL #2]
;;;91               b_A[ix] = b_A[iy];
0000ce  f8500024          LDR      r0,[r0,r4,LSL #2]
0000d2  a94e              ADD      r1,sp,#0x138
0000d4  f841002a          STR      r0,[r1,r10,LSL #2]
;;;92               b_A[iy] = temp;
0000d8  a84e              ADD      r0,sp,#0x138
0000da  f840b024          STR      r11,[r0,r4,LSL #2]
;;;93               ix += 6;
0000de  f10a0a06          ADD      r10,r10,#6
;;;94               iy += 6;
0000e2  1da4              ADDS     r4,r4,#6
0000e4  1c7f              ADDS     r7,r7,#1              ;89
                  |L5.230|
0000e6  2f06              CMP      r7,#6                 ;89
0000e8  dbee              BLT      |L5.200|
                  |L5.234|
;;;95             }
;;;96           }
;;;97     
;;;98           i1 = (c - j) + 6;
0000ea  eba80006          SUB      r0,r8,r6
0000ee  f1000906          ADD      r9,r0,#6
;;;99           for (jy = c + 1; jy + 1 <= i1; jy++) {
0000f2  f1080501          ADD      r5,r8,#1
0000f6  e00a              B        |L5.270|
                  |L5.248|
;;;100            b_A[jy] /= b_A[c];
0000f8  aa4e              ADD      r2,sp,#0x138
0000fa  f8521028          LDR      r1,[r2,r8,LSL #2]
0000fe  f8520025          LDR      r0,[r2,r5,LSL #2]
000102  f7fffffe          BL       __aeabi_fdiv
000106  a94e              ADD      r1,sp,#0x138
000108  f8410025          STR      r0,[r1,r5,LSL #2]
00010c  1c6d              ADDS     r5,r5,#1              ;99
                  |L5.270|
00010e  1c68              ADDS     r0,r5,#1              ;99
000110  4548              CMP      r0,r9                 ;99
000112  ddf1              BLE      |L5.248|
                  |L5.276|
;;;101          }
;;;102        }
;;;103    
;;;104        iy = c;
000114  4644              MOV      r4,r8
;;;105        jy = c + 6;
000116  1da5              ADDS     r5,r4,#6
;;;106        for (k = 1; k <= 5 - j; k++) {
000118  2701              MOVS     r7,#1
00011a  e032              B        |L5.386|
                  |L5.284|
;;;107          temp = b_A[jy];
00011c  a84e              ADD      r0,sp,#0x138
00011e  f850b025          LDR      r11,[r0,r5,LSL #2]
;;;108          if (b_A[jy] != 0.0F) {
000122  a94e              ADD      r1,sp,#0x138
000124  f8510025          LDR      r0,[r1,r5,LSL #2]
000128  2100              MOVS     r1,#0
00012a  f7fffffe          BL       __aeabi_cfcmpeq
00012e  d025              BEQ      |L5.380|
;;;109            ix = c + 1;
000130  f1080a01          ADD      r10,r8,#1
;;;110            i1 = (iy - j) + 12;
000134  1ba0              SUBS     r0,r4,r6
000136  f100090c          ADD      r9,r0,#0xc
;;;111            for (ijA = 7 + iy; ijA + 1 <= i1; ijA++) {
00013a  1de0              ADDS     r0,r4,#7
00013c  904a              STR      r0,[sp,#0x128]
00013e  e019              B        |L5.372|
                  |L5.320|
;;;112              b_A[ijA] += b_A[ix] * -temp;
000140  f08b4000          EOR      r0,r11,#0x80000000
000144  9000              STR      r0,[sp,#0]
000146  a84e              ADD      r0,sp,#0x138
000148  f850102a          LDR      r1,[r0,r10,LSL #2]
00014c  9800              LDR      r0,[sp,#0]
00014e  f7fffffe          BL       __aeabi_fmul
000152  aa4e              ADD      r2,sp,#0x138
000154  9001              STR      r0,[sp,#4]
000156  984a              LDR      r0,[sp,#0x128]
000158  f8521020          LDR      r1,[r2,r0,LSL #2]
00015c  9801              LDR      r0,[sp,#4]
00015e  f7fffffe          BL       __aeabi_fadd
000162  aa4e              ADD      r2,sp,#0x138
000164  994a              LDR      r1,[sp,#0x128]
000166  f8420021          STR      r0,[r2,r1,LSL #2]
;;;113              ix++;
00016a  f10a0a01          ADD      r10,r10,#1
00016e  984a              LDR      r0,[sp,#0x128]        ;111
000170  1c40              ADDS     r0,r0,#1              ;111
000172  904a              STR      r0,[sp,#0x128]        ;111
                  |L5.372|
000174  984a              LDR      r0,[sp,#0x128]        ;111
000176  1c40              ADDS     r0,r0,#1              ;111
000178  4548              CMP      r0,r9                 ;111
00017a  dde1              BLE      |L5.320|
                  |L5.380|
;;;114            }
;;;115          }
;;;116    
;;;117          jy += 6;
00017c  1dad              ADDS     r5,r5,#6
;;;118          iy += 6;
00017e  1da4              ADDS     r4,r4,#6
000180  1c7f              ADDS     r7,r7,#1              ;106
                  |L5.386|
000182  f1c60005          RSB      r0,r6,#5              ;106
000186  42b8              CMP      r0,r7                 ;106
000188  dac8              BGE      |L5.284|
00018a  1c76              ADDS     r6,r6,#1              ;70
                  |L5.396|
00018c  2e05              CMP      r6,#5                 ;70
00018e  f6ffaf5b          BLT      |L5.72|
;;;119        }
;;;120      }
;;;121    
;;;122      for (i1 = 0; i1 < 12; i1++) {
000192  f04f0900          MOV      r9,#0
000196  e012              B        |L5.446|
                  |L5.408|
;;;123        for (iy = 0; iy < 6; iy++) {
000198  2400              MOVS     r4,#0
00019a  e00c              B        |L5.438|
                  |L5.412|
;;;124          Y[iy + 6 * i1] = A[i1 + 12 * iy];
00019c  200c              MOVS     r0,#0xc
00019e  fb009104          MLA      r1,r0,r4,r9
0001a2  9872              LDR      r0,[sp,#0x1c8]
0001a4  f8500021          LDR      r0,[r0,r1,LSL #2]
0001a8  2106              MOVS     r1,#6
0001aa  fb014109          MLA      r1,r1,r9,r4
0001ae  aa02              ADD      r2,sp,#8
0001b0  f8420021          STR      r0,[r2,r1,LSL #2]
0001b4  1c64              ADDS     r4,r4,#1              ;123
                  |L5.438|
0001b6  2c06              CMP      r4,#6                 ;123
0001b8  dbf0              BLT      |L5.412|
0001ba  f1090901          ADD      r9,r9,#1              ;122
                  |L5.446|
0001be  f1b90f0c          CMP      r9,#0xc               ;122
0001c2  dbe9              BLT      |L5.408|
;;;125        }
;;;126      }
;;;127    
;;;128      for (jy = 0; jy < 6; jy++) {
0001c4  2500              MOVS     r5,#0
0001c6  e028              B        |L5.538|
                  |L5.456|
;;;129        if (ipiv[jy] != jy + 1) {
0001c8  a84c              ADD      r0,sp,#0x130
0001ca  5741              LDRSB    r1,[r0,r5]
0001cc  1c68              ADDS     r0,r5,#1
0001ce  4281              CMP      r1,r0
0001d0  d022              BEQ      |L5.536|
;;;130          for (j = 0; j < 12; j++) {
0001d2  2600              MOVS     r6,#0
0001d4  e01e              B        |L5.532|
                  |L5.470|
;;;131            temp = Y[jy + 6 * j];
0001d6  2006              MOVS     r0,#6
0001d8  fb005006          MLA      r0,r0,r6,r5
0001dc  a902              ADD      r1,sp,#8
0001de  f851b020          LDR      r11,[r1,r0,LSL #2]
;;;132            Y[jy + 6 * j] = Y[(ipiv[jy] + 6 * j) - 1];
0001e2  a84c              ADD      r0,sp,#0x130
0001e4  5740              LDRSB    r0,[r0,r5]
0001e6  2106              MOVS     r1,#6
0001e8  fb010006          MLA      r0,r1,r6,r0
0001ec  1e40              SUBS     r0,r0,#1
0001ee  a902              ADD      r1,sp,#8
0001f0  f8510020          LDR      r0,[r1,r0,LSL #2]
0001f4  2106              MOVS     r1,#6
0001f6  fb015106          MLA      r1,r1,r6,r5
0001fa  aa02              ADD      r2,sp,#8
0001fc  f8420021          STR      r0,[r2,r1,LSL #2]
;;;133            Y[(ipiv[jy] + 6 * j) - 1] = temp;
000200  a84c              ADD      r0,sp,#0x130
000202  5740              LDRSB    r0,[r0,r5]
000204  2106              MOVS     r1,#6
000206  fb010006          MLA      r0,r1,r6,r0
00020a  1e40              SUBS     r0,r0,#1
00020c  a902              ADD      r1,sp,#8
00020e  f841b020          STR      r11,[r1,r0,LSL #2]
000212  1c76              ADDS     r6,r6,#1              ;130
                  |L5.532|
000214  2e0c              CMP      r6,#0xc               ;130
000216  dbde              BLT      |L5.470|
                  |L5.536|
000218  1c6d              ADDS     r5,r5,#1              ;128
                  |L5.538|
00021a  2d06              CMP      r5,#6                 ;128
00021c  dbd4              BLT      |L5.456|
;;;134          }
;;;135        }
;;;136      }
;;;137    
;;;138      for (j = 0; j < 12; j++) {
00021e  2600              MOVS     r6,#0
000220  e036              B        |L5.656|
                  |L5.546|
;;;139        c = 6 * j;
000222  eb060046          ADD      r0,r6,r6,LSL #1
000226  ea4f0840          LSL      r8,r0,#1
;;;140        for (k = 0; k < 6; k++) {
00022a  2700              MOVS     r7,#0
00022c  e02d              B        |L5.650|
                  |L5.558|
;;;141          iy = 6 * k;
00022e  eb070047          ADD      r0,r7,r7,LSL #1
000232  0044              LSLS     r4,r0,#1
;;;142          if (Y[k + c] != 0.0F) {
000234  eb070108          ADD      r1,r7,r8
000238  aa02              ADD      r2,sp,#8
00023a  f8520021          LDR      r0,[r2,r1,LSL #2]
00023e  2100              MOVS     r1,#0
000240  f7fffffe          BL       __aeabi_cfcmpeq
000244  d020              BEQ      |L5.648|
;;;143            for (jy = k + 2; jy < 7; jy++) {
000246  1cbd              ADDS     r5,r7,#2
000248  e01c              B        |L5.644|
                  |L5.586|
;;;144              Y[(jy + c) - 1] -= Y[k + c] * b_A[(jy + iy) - 1];
00024a  192a              ADDS     r2,r5,r4
00024c  1e52              SUBS     r2,r2,#1
00024e  ab4e              ADD      r3,sp,#0x138
000250  f8531022          LDR      r1,[r3,r2,LSL #2]
000254  eb070208          ADD      r2,r7,r8
000258  ab02              ADD      r3,sp,#8
00025a  f8530022          LDR      r0,[r3,r2,LSL #2]
00025e  f7fffffe          BL       __aeabi_fmul
000262  9001              STR      r0,[sp,#4]
000264  eb050008          ADD      r0,r5,r8
000268  1e40              SUBS     r0,r0,#1
00026a  aa02              ADD      r2,sp,#8
00026c  f8521020          LDR      r1,[r2,r0,LSL #2]
000270  9801              LDR      r0,[sp,#4]
000272  f7fffffe          BL       __aeabi_frsub
000276  eb050108          ADD      r1,r5,r8
00027a  1e49              SUBS     r1,r1,#1
00027c  aa02              ADD      r2,sp,#8
00027e  f8420021          STR      r0,[r2,r1,LSL #2]
000282  1c6d              ADDS     r5,r5,#1              ;143
                  |L5.644|
000284  2d07              CMP      r5,#7                 ;143
000286  dbe0              BLT      |L5.586|
                  |L5.648|
000288  1c7f              ADDS     r7,r7,#1              ;140
                  |L5.650|
00028a  2f06              CMP      r7,#6                 ;140
00028c  dbcf              BLT      |L5.558|
00028e  1c76              ADDS     r6,r6,#1              ;138
                  |L5.656|
000290  2e0c              CMP      r6,#0xc               ;138
000292  dbc6              BLT      |L5.546|
;;;145            }
;;;146          }
;;;147        }
;;;148      }
;;;149    
;;;150      for (j = 0; j < 12; j++) {
000294  2600              MOVS     r6,#0
000296  e044              B        |L5.802|
                  |L5.664|
;;;151        c = 6 * j;
000298  eb060046          ADD      r0,r6,r6,LSL #1
00029c  ea4f0840          LSL      r8,r0,#1
;;;152        for (k = 5; k > -1; k += -1) {
0002a0  2705              MOVS     r7,#5
0002a2  e03b              B        |L5.796|
                  |L5.676|
;;;153          iy = 6 * k;
0002a4  eb070047          ADD      r0,r7,r7,LSL #1
0002a8  0044              LSLS     r4,r0,#1
;;;154          if (Y[k + c] != 0.0F) {
0002aa  eb070108          ADD      r1,r7,r8
0002ae  aa02              ADD      r2,sp,#8
0002b0  f8520021          LDR      r0,[r2,r1,LSL #2]
0002b4  2100              MOVS     r1,#0
0002b6  f7fffffe          BL       __aeabi_cfcmpeq
0002ba  d02e              BEQ      |L5.794|
;;;155            Y[k + c] /= b_A[k + iy];
0002bc  193a              ADDS     r2,r7,r4
0002be  ab4e              ADD      r3,sp,#0x138
0002c0  f8531022          LDR      r1,[r3,r2,LSL #2]
0002c4  eb070208          ADD      r2,r7,r8
0002c8  ab02              ADD      r3,sp,#8
0002ca  f8530022          LDR      r0,[r3,r2,LSL #2]
0002ce  f7fffffe          BL       __aeabi_fdiv
0002d2  eb070108          ADD      r1,r7,r8
0002d6  aa02              ADD      r2,sp,#8
0002d8  f8420021          STR      r0,[r2,r1,LSL #2]
;;;156            for (jy = 0; jy + 1 <= k; jy++) {
0002dc  2500              MOVS     r5,#0
0002de  e019              B        |L5.788|
                  |L5.736|
;;;157              Y[jy + c] -= Y[k + c] * b_A[jy + iy];
0002e0  192a              ADDS     r2,r5,r4
0002e2  ab4e              ADD      r3,sp,#0x138
0002e4  f8531022          LDR      r1,[r3,r2,LSL #2]
0002e8  eb070208          ADD      r2,r7,r8
0002ec  ab02              ADD      r3,sp,#8
0002ee  f8530022          LDR      r0,[r3,r2,LSL #2]
0002f2  f7fffffe          BL       __aeabi_fmul
0002f6  9001              STR      r0,[sp,#4]
0002f8  eb050008          ADD      r0,r5,r8
0002fc  aa02              ADD      r2,sp,#8
0002fe  f8521020          LDR      r1,[r2,r0,LSL #2]
000302  9801              LDR      r0,[sp,#4]
000304  f7fffffe          BL       __aeabi_frsub
000308  eb050108          ADD      r1,r5,r8
00030c  aa02              ADD      r2,sp,#8
00030e  f8420021          STR      r0,[r2,r1,LSL #2]
000312  1c6d              ADDS     r5,r5,#1              ;156
                  |L5.788|
000314  1c68              ADDS     r0,r5,#1              ;156
000316  42b8              CMP      r0,r7                 ;156
000318  dde2              BLE      |L5.736|
                  |L5.794|
00031a  1e7f              SUBS     r7,r7,#1              ;152
                  |L5.796|
00031c  2f00              CMP      r7,#0                 ;152
00031e  dac1              BGE      |L5.676|
000320  1c76              ADDS     r6,r6,#1              ;150
                  |L5.802|
000322  2e0c              CMP      r6,#0xc               ;150
000324  dbb8              BLT      |L5.664|
;;;158            }
;;;159          }
;;;160        }
;;;161      }
;;;162    
;;;163      for (i1 = 0; i1 < 6; i1++) {
000326  f04f0900          MOV      r9,#0
00032a  e012              B        |L5.850|
                  |L5.812|
;;;164        for (iy = 0; iy < 12; iy++) {
00032c  2400              MOVS     r4,#0
00032e  e00c              B        |L5.842|
                  |L5.816|
;;;165          y[iy + 12 * i1] = Y[i1 + 6 * iy];
000330  2006              MOVS     r0,#6
000332  fb009004          MLA      r0,r0,r4,r9
000336  a902              ADD      r1,sp,#8
000338  f8511020          LDR      r1,[r1,r0,LSL #2]
00033c  200c              MOVS     r0,#0xc
00033e  fb004209          MLA      r2,r0,r9,r4
000342  9874              LDR      r0,[sp,#0x1d0]
000344  f8401022          STR      r1,[r0,r2,LSL #2]
000348  1c64              ADDS     r4,r4,#1              ;164
                  |L5.842|
00034a  2c0c              CMP      r4,#0xc               ;164
00034c  dbf0              BLT      |L5.816|
00034e  f1090901          ADD      r9,r9,#1              ;163
                  |L5.850|
000352  f1b90f06          CMP      r9,#6                 ;163
000356  dbe9              BLT      |L5.812|
;;;166        }
;;;167      }
;;;168    }
000358  b075              ADD      sp,sp,#0x1d4
00035a  e8bd8ff0          POP      {r4-r11,pc}
;;;169    
                          ENDP


                          AREA ||i.inv||, CODE, READONLY, ALIGN=1

                  inv PROC
;;;172     */
;;;173    static void inv(const float x[9], float y[9])
000000  e92d4ff0          PUSH     {r4-r11,lr}
;;;174    {
000004  b08f              SUB      sp,sp,#0x3c
000006  4604              MOV      r4,r0
000008  460d              MOV      r5,r1
;;;175      float b_x[9];
;;;176      int p1;
;;;177      int p2;
;;;178      int p3;
;;;179      float absx11;
;;;180      float absx21;
;;;181      float absx31;
;;;182      int itmp;
;;;183      for (p1 = 0; p1 < 9; p1++) {
00000a  2700              MOVS     r7,#0
00000c  e005              B        |L6.26|
                  |L6.14|
;;;184        b_x[p1] = x[p1];
00000e  f8540027          LDR      r0,[r4,r7,LSL #2]
000012  a905              ADD      r1,sp,#0x14
000014  f8410027          STR      r0,[r1,r7,LSL #2]
000018  1c7f              ADDS     r7,r7,#1              ;183
                  |L6.26|
00001a  2f09              CMP      r7,#9                 ;183
00001c  dbf7              BLT      |L6.14|
;;;185      }
;;;186    
;;;187      p1 = 0;
00001e  2700              MOVS     r7,#0
;;;188      p2 = 3;
000020  f04f0903          MOV      r9,#3
;;;189      p3 = 6;
000024  f04f0a06          MOV      r10,#6
;;;190      absx11 = (real32_T)fabs(x[0]);
000028  6820              LDR      r0,[r4,#0]
00002a  f7fffffe          BL       __aeabi_f2d
00002e  f0214100          BIC      r1,r1,#0x80000000
000032  e9cd0102          STRD     r0,r1,[sp,#8]
000036  f7fffffe          BL       __aeabi_d2f
00003a  4606              MOV      r6,r0
;;;191      absx21 = (real32_T)fabs(x[1]);
00003c  6860              LDR      r0,[r4,#4]
00003e  f7fffffe          BL       __aeabi_f2d
000042  f0214100          BIC      r1,r1,#0x80000000
000046  e9cd0102          STRD     r0,r1,[sp,#8]
00004a  f7fffffe          BL       __aeabi_d2f
00004e  4680              MOV      r8,r0
;;;192      absx31 = (real32_T)fabs(x[2]);
000050  68a0              LDR      r0,[r4,#8]
000052  f7fffffe          BL       __aeabi_f2d
000056  f0214100          BIC      r1,r1,#0x80000000
00005a  e9cd0102          STRD     r0,r1,[sp,#8]
00005e  f7fffffe          BL       __aeabi_d2f
000062  4683              MOV      r11,r0
;;;193      if ((absx21 > absx11) && (absx21 > absx31)) {
000064  4631              MOV      r1,r6
000066  4640              MOV      r0,r8
000068  f7fffffe          BL       __aeabi_cfrcmple
00006c  d214              BCS      |L6.152|
00006e  4659              MOV      r1,r11
000070  4640              MOV      r0,r8
000072  f7fffffe          BL       __aeabi_cfrcmple
000076  d20f              BCS      |L6.152|
;;;194        p1 = 3;
000078  2703              MOVS     r7,#3
;;;195        p2 = 0;
00007a  f04f0900          MOV      r9,#0
;;;196        b_x[0] = x[1];
00007e  6860              LDR      r0,[r4,#4]
000080  9005              STR      r0,[sp,#0x14]
;;;197        b_x[1] = x[0];
000082  6820              LDR      r0,[r4,#0]
000084  9006              STR      r0,[sp,#0x18]
;;;198        b_x[3] = x[4];
000086  6920              LDR      r0,[r4,#0x10]
000088  9008              STR      r0,[sp,#0x20]
;;;199        b_x[4] = x[3];
00008a  68e0              LDR      r0,[r4,#0xc]
00008c  9009              STR      r0,[sp,#0x24]
;;;200        b_x[6] = x[7];
00008e  69e0              LDR      r0,[r4,#0x1c]
000090  900b              STR      r0,[sp,#0x2c]
;;;201        b_x[7] = x[6];
000092  69a0              LDR      r0,[r4,#0x18]
000094  900c              STR      r0,[sp,#0x30]
000096  e013              B        |L6.192|
                  |L6.152|
;;;202      } else {
;;;203        if (absx31 > absx11) {
000098  4631              MOV      r1,r6
00009a  4658              MOV      r0,r11
00009c  f7fffffe          BL       __aeabi_cfrcmple
0000a0  d20e              BCS      |L6.192|
;;;204          p1 = 6;
0000a2  2706              MOVS     r7,#6
;;;205          p3 = 0;
0000a4  f04f0a00          MOV      r10,#0
;;;206          b_x[0] = x[2];
0000a8  68a0              LDR      r0,[r4,#8]
0000aa  9005              STR      r0,[sp,#0x14]
;;;207          b_x[2] = x[0];
0000ac  6820              LDR      r0,[r4,#0]
0000ae  9007              STR      r0,[sp,#0x1c]
;;;208          b_x[3] = x[5];
0000b0  6960              LDR      r0,[r4,#0x14]
0000b2  9008              STR      r0,[sp,#0x20]
;;;209          b_x[5] = x[3];
0000b4  68e0              LDR      r0,[r4,#0xc]
0000b6  900a              STR      r0,[sp,#0x28]
;;;210          b_x[6] = x[8];
0000b8  6a20              LDR      r0,[r4,#0x20]
0000ba  900b              STR      r0,[sp,#0x2c]
;;;211          b_x[8] = x[6];
0000bc  69a0              LDR      r0,[r4,#0x18]
0000be  900d              STR      r0,[sp,#0x34]
                  |L6.192|
;;;212        }
;;;213      }
;;;214    
;;;215      absx11 = b_x[1] / b_x[0];
0000c0  e9dd1005          LDRD     r1,r0,[sp,#0x14]
0000c4  f7fffffe          BL       __aeabi_fdiv
0000c8  4606              MOV      r6,r0
;;;216      b_x[1] /= b_x[0];
0000ca  e9dd1005          LDRD     r1,r0,[sp,#0x14]
0000ce  f7fffffe          BL       __aeabi_fdiv
0000d2  9006              STR      r0,[sp,#0x18]
;;;217      absx21 = b_x[2] / b_x[0];
0000d4  9905              LDR      r1,[sp,#0x14]
0000d6  9807              LDR      r0,[sp,#0x1c]
0000d8  f7fffffe          BL       __aeabi_fdiv
0000dc  4680              MOV      r8,r0
;;;218      b_x[2] /= b_x[0];
0000de  9905              LDR      r1,[sp,#0x14]
0000e0  9807              LDR      r0,[sp,#0x1c]
0000e2  f7fffffe          BL       __aeabi_fdiv
0000e6  9007              STR      r0,[sp,#0x1c]
;;;219      b_x[4] -= absx11 * b_x[3];
0000e8  4630              MOV      r0,r6
0000ea  9908              LDR      r1,[sp,#0x20]
0000ec  f7fffffe          BL       __aeabi_fmul
0000f0  9003              STR      r0,[sp,#0xc]
0000f2  9909              LDR      r1,[sp,#0x24]
0000f4  f7fffffe          BL       __aeabi_frsub
0000f8  9009              STR      r0,[sp,#0x24]
;;;220      b_x[5] -= absx21 * b_x[3];
0000fa  4640              MOV      r0,r8
0000fc  9908              LDR      r1,[sp,#0x20]
0000fe  f7fffffe          BL       __aeabi_fmul
000102  9003              STR      r0,[sp,#0xc]
000104  990a              LDR      r1,[sp,#0x28]
000106  f7fffffe          BL       __aeabi_frsub
00010a  900a              STR      r0,[sp,#0x28]
;;;221      b_x[7] -= absx11 * b_x[6];
00010c  4630              MOV      r0,r6
00010e  990b              LDR      r1,[sp,#0x2c]
000110  f7fffffe          BL       __aeabi_fmul
000114  9003              STR      r0,[sp,#0xc]
000116  990c              LDR      r1,[sp,#0x30]
000118  f7fffffe          BL       __aeabi_frsub
00011c  900c              STR      r0,[sp,#0x30]
;;;222      b_x[8] -= absx21 * b_x[6];
00011e  4640              MOV      r0,r8
000120  990b              LDR      r1,[sp,#0x2c]
000122  f7fffffe          BL       __aeabi_fmul
000126  9003              STR      r0,[sp,#0xc]
000128  990d              LDR      r1,[sp,#0x34]
00012a  f7fffffe          BL       __aeabi_frsub
00012e  900d              STR      r0,[sp,#0x34]
;;;223      if ((real32_T)fabs(b_x[5]) > (real32_T)fabs(b_x[4])) {
000130  9809              LDR      r0,[sp,#0x24]
000132  f7fffffe          BL       __aeabi_f2d
000136  f0214100          BIC      r1,r1,#0x80000000
00013a  e9cd0100          STRD     r0,r1,[sp,#0]
00013e  f7fffffe          BL       __aeabi_d2f
000142  9003              STR      r0,[sp,#0xc]
000144  980a              LDR      r0,[sp,#0x28]
000146  f7fffffe          BL       __aeabi_f2d
00014a  f0214100          BIC      r1,r1,#0x80000000
00014e  e9cd0100          STRD     r0,r1,[sp,#0]
000152  f7fffffe          BL       __aeabi_d2f
000156  9002              STR      r0,[sp,#8]
000158  9903              LDR      r1,[sp,#0xc]
00015a  f7fffffe          BL       __aeabi_cfrcmple
00015e  d20f              BCS      |L6.384|
;;;224        itmp = p2;
000160  f8cd9010          STR      r9,[sp,#0x10]
;;;225        p2 = p3;
000164  46d1              MOV      r9,r10
;;;226        p3 = itmp;
000166  f8dda010          LDR      r10,[sp,#0x10]
;;;227        b_x[1] = absx21;
00016a  f8cd8018          STR      r8,[sp,#0x18]
;;;228        b_x[2] = absx11;
00016e  9607              STR      r6,[sp,#0x1c]
;;;229        absx11 = b_x[4];
000170  9e09              LDR      r6,[sp,#0x24]
;;;230        b_x[4] = b_x[5];
000172  980a              LDR      r0,[sp,#0x28]
000174  9009              STR      r0,[sp,#0x24]
;;;231        b_x[5] = absx11;
000176  960a              STR      r6,[sp,#0x28]
;;;232        absx11 = b_x[7];
000178  9e0c              LDR      r6,[sp,#0x30]
;;;233        b_x[7] = b_x[8];
00017a  980d              LDR      r0,[sp,#0x34]
00017c  900c              STR      r0,[sp,#0x30]
;;;234        b_x[8] = absx11;
00017e  960d              STR      r6,[sp,#0x34]
                  |L6.384|
;;;235      }
;;;236    
;;;237      absx11 = b_x[5] / b_x[4];
000180  e9dd1009          LDRD     r1,r0,[sp,#0x24]
000184  f7fffffe          BL       __aeabi_fdiv
000188  4606              MOV      r6,r0
;;;238      b_x[5] /= b_x[4];
00018a  e9dd1009          LDRD     r1,r0,[sp,#0x24]
00018e  f7fffffe          BL       __aeabi_fdiv
000192  900a              STR      r0,[sp,#0x28]
;;;239      b_x[8] -= absx11 * b_x[7];
000194  4630              MOV      r0,r6
000196  990c              LDR      r1,[sp,#0x30]
000198  f7fffffe          BL       __aeabi_fmul
00019c  9003              STR      r0,[sp,#0xc]
00019e  990d              LDR      r1,[sp,#0x34]
0001a0  f7fffffe          BL       __aeabi_frsub
0001a4  900d              STR      r0,[sp,#0x34]
;;;240      absx11 = (b_x[5] * b_x[1] - b_x[2]) / b_x[8];
0001a6  9906              LDR      r1,[sp,#0x18]
0001a8  980a              LDR      r0,[sp,#0x28]
0001aa  f7fffffe          BL       __aeabi_fmul
0001ae  9002              STR      r0,[sp,#8]
0001b0  9907              LDR      r1,[sp,#0x1c]
0001b2  f7fffffe          BL       __aeabi_fsub
0001b6  9003              STR      r0,[sp,#0xc]
0001b8  990d              LDR      r1,[sp,#0x34]
0001ba  f7fffffe          BL       __aeabi_fdiv
0001be  4606              MOV      r6,r0
;;;241      absx21 = -(b_x[1] + b_x[7] * absx11) / b_x[4];
0001c0  4631              MOV      r1,r6
0001c2  980c              LDR      r0,[sp,#0x30]
0001c4  f7fffffe          BL       __aeabi_fmul
0001c8  9002              STR      r0,[sp,#8]
0001ca  9906              LDR      r1,[sp,#0x18]
0001cc  f7fffffe          BL       __aeabi_fadd
0001d0  f0804000          EOR      r0,r0,#0x80000000
0001d4  9003              STR      r0,[sp,#0xc]
0001d6  9909              LDR      r1,[sp,#0x24]
0001d8  f7fffffe          BL       __aeabi_fdiv
0001dc  4680              MOV      r8,r0
;;;242      y[p1] = ((1.0F - b_x[3] * absx21) - b_x[6] * absx11) / b_x[0];
0001de  4631              MOV      r1,r6
0001e0  980b              LDR      r0,[sp,#0x2c]
0001e2  f7fffffe          BL       __aeabi_fmul
0001e6  9002              STR      r0,[sp,#8]
0001e8  4641              MOV      r1,r8
0001ea  9808              LDR      r0,[sp,#0x20]
0001ec  f7fffffe          BL       __aeabi_fmul
0001f0  f04f517e          MOV      r1,#0x3f800000
0001f4  9000              STR      r0,[sp,#0]
0001f6  f7fffffe          BL       __aeabi_frsub
0001fa  9001              STR      r0,[sp,#4]
0001fc  9902              LDR      r1,[sp,#8]
0001fe  f7fffffe          BL       __aeabi_fsub
000202  9003              STR      r0,[sp,#0xc]
000204  9905              LDR      r1,[sp,#0x14]
000206  f7fffffe          BL       __aeabi_fdiv
00020a  f8450027          STR      r0,[r5,r7,LSL #2]
;;;243      y[p1 + 1] = absx21;
00020e  1c78              ADDS     r0,r7,#1
000210  f8458020          STR      r8,[r5,r0,LSL #2]
;;;244      y[p1 + 2] = absx11;
000214  1cb8              ADDS     r0,r7,#2
000216  f8456020          STR      r6,[r5,r0,LSL #2]
;;;245      absx11 = -b_x[5] / b_x[8];
00021a  980a              LDR      r0,[sp,#0x28]
00021c  f0804000          EOR      r0,r0,#0x80000000
000220  9003              STR      r0,[sp,#0xc]
000222  990d              LDR      r1,[sp,#0x34]
000224  f7fffffe          BL       __aeabi_fdiv
000228  4606              MOV      r6,r0
;;;246      absx21 = (1.0F - b_x[7] * absx11) / b_x[4];
00022a  4631              MOV      r1,r6
00022c  980c              LDR      r0,[sp,#0x30]
00022e  f7fffffe          BL       __aeabi_fmul
000232  f04f517e          MOV      r1,#0x3f800000
000236  9002              STR      r0,[sp,#8]
000238  f7fffffe          BL       __aeabi_frsub
00023c  9003              STR      r0,[sp,#0xc]
00023e  9909              LDR      r1,[sp,#0x24]
000240  f7fffffe          BL       __aeabi_fdiv
000244  4680              MOV      r8,r0
;;;247      y[p2] = -(b_x[3] * absx21 + b_x[6] * absx11) / b_x[0];
000246  4631              MOV      r1,r6
000248  980b              LDR      r0,[sp,#0x2c]
00024a  f7fffffe          BL       __aeabi_fmul
00024e  9002              STR      r0,[sp,#8]
000250  4641              MOV      r1,r8
000252  9808              LDR      r0,[sp,#0x20]
000254  f7fffffe          BL       __aeabi_fmul
000258  9001              STR      r0,[sp,#4]
00025a  9902              LDR      r1,[sp,#8]
00025c  f7fffffe          BL       __aeabi_fadd
000260  f0804000          EOR      r0,r0,#0x80000000
000264  9003              STR      r0,[sp,#0xc]
000266  9905              LDR      r1,[sp,#0x14]
000268  f7fffffe          BL       __aeabi_fdiv
00026c  f8450029          STR      r0,[r5,r9,LSL #2]
;;;248      y[p2 + 1] = absx21;
000270  f1090001          ADD      r0,r9,#1
000274  f8458020          STR      r8,[r5,r0,LSL #2]
;;;249      y[p2 + 2] = absx11;
000278  1c40              ADDS     r0,r0,#1
00027a  f8456020          STR      r6,[r5,r0,LSL #2]
;;;250      absx11 = 1.0F / b_x[8];
00027e  f04f507e          MOV      r0,#0x3f800000
000282  990d              LDR      r1,[sp,#0x34]
000284  f7fffffe          BL       __aeabi_fdiv
000288  4606              MOV      r6,r0
;;;251      absx21 = -b_x[7] * absx11 / b_x[4];
00028a  980c              LDR      r0,[sp,#0x30]
00028c  f0804000          EOR      r0,r0,#0x80000000
000290  4631              MOV      r1,r6
000292  9002              STR      r0,[sp,#8]
000294  f7fffffe          BL       __aeabi_fmul
000298  9003              STR      r0,[sp,#0xc]
00029a  9909              LDR      r1,[sp,#0x24]
00029c  f7fffffe          BL       __aeabi_fdiv
0002a0  4680              MOV      r8,r0
;;;252      y[p3] = -(b_x[3] * absx21 + b_x[6] * absx11) / b_x[0];
0002a2  4631              MOV      r1,r6
0002a4  980b              LDR      r0,[sp,#0x2c]
0002a6  f7fffffe          BL       __aeabi_fmul
0002aa  9002              STR      r0,[sp,#8]
0002ac  4641              MOV      r1,r8
0002ae  9808              LDR      r0,[sp,#0x20]
0002b0  f7fffffe          BL       __aeabi_fmul
0002b4  9001              STR      r0,[sp,#4]
0002b6  9902              LDR      r1,[sp,#8]
0002b8  f7fffffe          BL       __aeabi_fadd
0002bc  f0804000          EOR      r0,r0,#0x80000000
0002c0  9003              STR      r0,[sp,#0xc]
0002c2  9905              LDR      r1,[sp,#0x14]
0002c4  f7fffffe          BL       __aeabi_fdiv
0002c8  f845002a          STR      r0,[r5,r10,LSL #2]
;;;253      y[p3 + 1] = absx21;
0002cc  f10a0001          ADD      r0,r10,#1
0002d0  f8458020          STR      r8,[r5,r0,LSL #2]
;;;254      y[p3 + 2] = absx11;
0002d4  1c40              ADDS     r0,r0,#1
0002d6  f8456020          STR      r6,[r5,r0,LSL #2]
;;;255    }
0002da  b00f              ADD      sp,sp,#0x3c
0002dc  e8bd8ff0          POP      {r4-r11,pc}
;;;256    
                          ENDP


                          AREA ||i.mrdivide||, CODE, READONLY, ALIGN=1

                  mrdivide PROC
;;;259     */
;;;260    static void mrdivide(const float A[108], const float B[81], float y[108])
000000  e92d4ff7          PUSH     {r0-r2,r4-r11,lr}
;;;261    {
000004  f5ad7d44          SUB      sp,sp,#0x310
;;;262      float b_A[81];
;;;263      signed char ipiv[9];
;;;264      int i0;
;;;265      int iy;
;;;266      int j;
;;;267      int c;
;;;268      int ix;
;;;269      float temp;
;;;270      int k;
;;;271      float s;
;;;272      int jy;
;;;273      int ijA;
;;;274      float Y[108];
;;;275      for (i0 = 0; i0 < 9; i0++) {
000008  f04f0900          MOV      r9,#0
00000c  e018              B        |L7.64|
                  |L7.14|
;;;276        for (iy = 0; iy < 9; iy++) {
00000e  2400              MOVS     r4,#0
000010  e00c              B        |L7.44|
                  |L7.18|
;;;277          b_A[iy + 9 * i0] = B[i0 + 9 * iy];
000012  2009              MOVS     r0,#9
000014  fb009104          MLA      r1,r0,r4,r9
000018  98c5              LDR      r0,[sp,#0x314]
00001a  f8500021          LDR      r0,[r0,r1,LSL #2]
00001e  2109              MOVS     r1,#9
000020  fb014109          MLA      r1,r1,r9,r4
000024  aa73              ADD      r2,sp,#0x1cc
000026  f8420021          STR      r0,[r2,r1,LSL #2]
00002a  1c64              ADDS     r4,r4,#1              ;276
                  |L7.44|
00002c  2c09              CMP      r4,#9                 ;276
00002e  dbf0              BLT      |L7.18|
;;;278        }
;;;279    
;;;280        ipiv[i0] = (signed char)(1 + i0);
000030  f1090001          ADD      r0,r9,#1
000034  b240              SXTB     r0,r0
000036  a970              ADD      r1,sp,#0x1c0
000038  f8010009          STRB     r0,[r1,r9]
00003c  f1090901          ADD      r9,r9,#1              ;275
                  |L7.64|
000040  f1b90f09          CMP      r9,#9                 ;275
000044  dbe3              BLT      |L7.14|
;;;281      }
;;;282    
;;;283      for (j = 0; j < 8; j++) {
000046  2600              MOVS     r6,#0
000048  e0a5              B        |L7.406|
                  |L7.74|
;;;284        c = j * 10;
00004a  eb060086          ADD      r0,r6,r6,LSL #2
00004e  ea4f0840          LSL      r8,r0,#1
;;;285        iy = 0;
000052  2400              MOVS     r4,#0
;;;286        ix = c;
000054  46c2              MOV      r10,r8
;;;287        temp = (real32_T)fabs(b_A[c]);
000056  a973              ADD      r1,sp,#0x1cc
000058  f8510028          LDR      r0,[r1,r8,LSL #2]
00005c  f7fffffe          BL       __aeabi_f2d
000060  f0214100          BIC      r1,r1,#0x80000000
000064  e9cd0100          STRD     r0,r1,[sp,#0]
000068  f7fffffe          BL       __aeabi_d2f
00006c  4683              MOV      r11,r0
;;;288        for (k = 2; k <= 9 - j; k++) {
00006e  2702              MOVS     r7,#2
000070  e016              B        |L7.160|
                  |L7.114|
;;;289          ix++;
000072  f10a0a01          ADD      r10,r10,#1
;;;290          s = (real32_T)fabs(b_A[ix]);
000076  a973              ADD      r1,sp,#0x1cc
000078  f851002a          LDR      r0,[r1,r10,LSL #2]
00007c  f7fffffe          BL       __aeabi_f2d
000080  f0214100          BIC      r1,r1,#0x80000000
000084  e9cd0100          STRD     r0,r1,[sp,#0]
000088  f7fffffe          BL       __aeabi_d2f
00008c  906f              STR      r0,[sp,#0x1bc]
;;;291          if (s > temp) {
00008e  4659              MOV      r1,r11
000090  986f              LDR      r0,[sp,#0x1bc]
000092  f7fffffe          BL       __aeabi_cfrcmple
000096  d202              BCS      |L7.158|
;;;292            iy = k - 1;
000098  1e7c              SUBS     r4,r7,#1
;;;293            temp = s;
00009a  f8ddb1bc          LDR      r11,[sp,#0x1bc]
                  |L7.158|
00009e  1c7f              ADDS     r7,r7,#1              ;288
                  |L7.160|
0000a0  f1c60009          RSB      r0,r6,#9              ;288
0000a4  42b8              CMP      r0,r7                 ;288
0000a6  dae4              BGE      |L7.114|
;;;294          }
;;;295        }
;;;296    
;;;297        if (b_A[c + iy] != 0.0F) {
0000a8  eb080104          ADD      r1,r8,r4
0000ac  aa73              ADD      r2,sp,#0x1cc
0000ae  f8520021          LDR      r0,[r2,r1,LSL #2]
0000b2  2100              MOVS     r1,#0
0000b4  f7fffffe          BL       __aeabi_cfcmpeq
0000b8  d02f              BEQ      |L7.282|
;;;298          if (iy != 0) {
0000ba  b1cc              CBZ      r4,|L7.240|
;;;299            ipiv[j] = (signed char)((j + iy) + 1);
0000bc  1930              ADDS     r0,r6,r4
0000be  1c40              ADDS     r0,r0,#1
0000c0  b240              SXTB     r0,r0
0000c2  a970              ADD      r1,sp,#0x1c0
0000c4  5588              STRB     r0,[r1,r6]
;;;300            ix = j;
0000c6  46b2              MOV      r10,r6
;;;301            iy += j;
0000c8  4434              ADD      r4,r4,r6
;;;302            for (k = 0; k < 9; k++) {
0000ca  2700              MOVS     r7,#0
0000cc  e00e              B        |L7.236|
                  |L7.206|
;;;303              temp = b_A[ix];
0000ce  a873              ADD      r0,sp,#0x1cc
0000d0  f850b02a          LDR      r11,[r0,r10,LSL #2]
;;;304              b_A[ix] = b_A[iy];
0000d4  f8500024          LDR      r0,[r0,r4,LSL #2]
0000d8  a973              ADD      r1,sp,#0x1cc
0000da  f841002a          STR      r0,[r1,r10,LSL #2]
;;;305              b_A[iy] = temp;
0000de  a873              ADD      r0,sp,#0x1cc
0000e0  f840b024          STR      r11,[r0,r4,LSL #2]
;;;306              ix += 9;
0000e4  f10a0a09          ADD      r10,r10,#9
;;;307              iy += 9;
0000e8  3409              ADDS     r4,r4,#9
0000ea  1c7f              ADDS     r7,r7,#1              ;302
                  |L7.236|
0000ec  2f09              CMP      r7,#9                 ;302
0000ee  dbee              BLT      |L7.206|
                  |L7.240|
;;;308            }
;;;309          }
;;;310    
;;;311          i0 = (c - j) + 9;
0000f0  eba80006          SUB      r0,r8,r6
0000f4  f1000909          ADD      r9,r0,#9
;;;312          for (jy = c + 1; jy + 1 <= i0; jy++) {
0000f8  f1080501          ADD      r5,r8,#1
0000fc  e00a              B        |L7.276|
                  |L7.254|
;;;313            b_A[jy] /= b_A[c];
0000fe  aa73              ADD      r2,sp,#0x1cc
000100  f8521028          LDR      r1,[r2,r8,LSL #2]
000104  f8520025          LDR      r0,[r2,r5,LSL #2]
000108  f7fffffe          BL       __aeabi_fdiv
00010c  a973              ADD      r1,sp,#0x1cc
00010e  f8410025          STR      r0,[r1,r5,LSL #2]
000112  1c6d              ADDS     r5,r5,#1              ;312
                  |L7.276|
000114  1c68              ADDS     r0,r5,#1              ;312
000116  4548              CMP      r0,r9                 ;312
000118  ddf1              BLE      |L7.254|
                  |L7.282|
;;;314          }
;;;315        }
;;;316    
;;;317        iy = c;
00011a  4644              MOV      r4,r8
;;;318        jy = c + 9;
00011c  f1080509          ADD      r5,r8,#9
;;;319        for (k = 1; k <= 8 - j; k++) {
000120  2701              MOVS     r7,#1
000122  e033              B        |L7.396|
                  |L7.292|
;;;320          temp = b_A[jy];
000124  a873              ADD      r0,sp,#0x1cc
000126  f850b025          LDR      r11,[r0,r5,LSL #2]
;;;321          if (b_A[jy] != 0.0F) {
00012a  a973              ADD      r1,sp,#0x1cc
00012c  f8510025          LDR      r0,[r1,r5,LSL #2]
000130  2100              MOVS     r1,#0
000132  f7fffffe          BL       __aeabi_cfcmpeq
000136  d026              BEQ      |L7.390|
;;;322            ix = c + 1;
000138  f1080a01          ADD      r10,r8,#1
;;;323            i0 = (iy - j) + 18;
00013c  1ba0              SUBS     r0,r4,r6
00013e  f1000912          ADD      r9,r0,#0x12
;;;324            for (ijA = 10 + iy; ijA + 1 <= i0; ijA++) {
000142  f104000a          ADD      r0,r4,#0xa
000146  906e              STR      r0,[sp,#0x1b8]
000148  e019              B        |L7.382|
                  |L7.330|
;;;325              b_A[ijA] += b_A[ix] * -temp;
00014a  f08b4000          EOR      r0,r11,#0x80000000
00014e  9000              STR      r0,[sp,#0]
000150  a873              ADD      r0,sp,#0x1cc
000152  f850102a          LDR      r1,[r0,r10,LSL #2]
000156  9800              LDR      r0,[sp,#0]
000158  f7fffffe          BL       __aeabi_fmul
00015c  aa73              ADD      r2,sp,#0x1cc
00015e  9001              STR      r0,[sp,#4]
000160  986e              LDR      r0,[sp,#0x1b8]
000162  f8521020          LDR      r1,[r2,r0,LSL #2]
000166  9801              LDR      r0,[sp,#4]
000168  f7fffffe          BL       __aeabi_fadd
00016c  aa73              ADD      r2,sp,#0x1cc
00016e  996e              LDR      r1,[sp,#0x1b8]
000170  f8420021          STR      r0,[r2,r1,LSL #2]
;;;326              ix++;
000174  f10a0a01          ADD      r10,r10,#1
000178  986e              LDR      r0,[sp,#0x1b8]        ;324
00017a  1c40              ADDS     r0,r0,#1              ;324
00017c  906e              STR      r0,[sp,#0x1b8]        ;324
                  |L7.382|
00017e  986e              LDR      r0,[sp,#0x1b8]        ;324
000180  1c40              ADDS     r0,r0,#1              ;324
000182  4548              CMP      r0,r9                 ;324
000184  dde1              BLE      |L7.330|
                  |L7.390|
;;;327            }
;;;328          }
;;;329    
;;;330          jy += 9;
000186  3509              ADDS     r5,r5,#9
;;;331          iy += 9;
000188  3409              ADDS     r4,r4,#9
00018a  1c7f              ADDS     r7,r7,#1              ;319
                  |L7.396|
00018c  f1c60008          RSB      r0,r6,#8              ;319
000190  42b8              CMP      r0,r7                 ;319
000192  dac7              BGE      |L7.292|
000194  1c76              ADDS     r6,r6,#1              ;283
                  |L7.406|
000196  2e08              CMP      r6,#8                 ;283
000198  f6ffaf57          BLT      |L7.74|
;;;332        }
;;;333      }
;;;334    
;;;335      for (i0 = 0; i0 < 12; i0++) {
00019c  f04f0900          MOV      r9,#0
0001a0  e012              B        |L7.456|
                  |L7.418|
;;;336        for (iy = 0; iy < 9; iy++) {
0001a2  2400              MOVS     r4,#0
0001a4  e00c              B        |L7.448|
                  |L7.422|
;;;337          Y[iy + 9 * i0] = A[i0 + 12 * iy];
0001a6  200c              MOVS     r0,#0xc
0001a8  fb009104          MLA      r1,r0,r4,r9
0001ac  98c4              LDR      r0,[sp,#0x310]
0001ae  f8500021          LDR      r0,[r0,r1,LSL #2]
0001b2  2109              MOVS     r1,#9
0001b4  fb014109          MLA      r1,r1,r9,r4
0001b8  aa02              ADD      r2,sp,#8
0001ba  f8420021          STR      r0,[r2,r1,LSL #2]
0001be  1c64              ADDS     r4,r4,#1              ;336
                  |L7.448|
0001c0  2c09              CMP      r4,#9                 ;336
0001c2  dbf0              BLT      |L7.422|
0001c4  f1090901          ADD      r9,r9,#1              ;335
                  |L7.456|
0001c8  f1b90f0c          CMP      r9,#0xc               ;335
0001cc  dbe9              BLT      |L7.418|
;;;338        }
;;;339      }
;;;340    
;;;341      for (jy = 0; jy < 9; jy++) {
0001ce  2500              MOVS     r5,#0
0001d0  e028              B        |L7.548|
                  |L7.466|
;;;342        if (ipiv[jy] != jy + 1) {
0001d2  a870              ADD      r0,sp,#0x1c0
0001d4  5741              LDRSB    r1,[r0,r5]
0001d6  1c68              ADDS     r0,r5,#1
0001d8  4281              CMP      r1,r0
0001da  d022              BEQ      |L7.546|
;;;343          for (j = 0; j < 12; j++) {
0001dc  2600              MOVS     r6,#0
0001de  e01e              B        |L7.542|
                  |L7.480|
;;;344            temp = Y[jy + 9 * j];
0001e0  2009              MOVS     r0,#9
0001e2  fb005006          MLA      r0,r0,r6,r5
0001e6  a902              ADD      r1,sp,#8
0001e8  f851b020          LDR      r11,[r1,r0,LSL #2]
;;;345            Y[jy + 9 * j] = Y[(ipiv[jy] + 9 * j) - 1];
0001ec  a870              ADD      r0,sp,#0x1c0
0001ee  5740              LDRSB    r0,[r0,r5]
0001f0  2109              MOVS     r1,#9
0001f2  fb010006          MLA      r0,r1,r6,r0
0001f6  1e40              SUBS     r0,r0,#1
0001f8  a902              ADD      r1,sp,#8
0001fa  f8510020          LDR      r0,[r1,r0,LSL #2]
0001fe  2109              MOVS     r1,#9
000200  fb015106          MLA      r1,r1,r6,r5
000204  aa02              ADD      r2,sp,#8
000206  f8420021          STR      r0,[r2,r1,LSL #2]
;;;346            Y[(ipiv[jy] + 9 * j) - 1] = temp;
00020a  a870              ADD      r0,sp,#0x1c0
00020c  5740              LDRSB    r0,[r0,r5]
00020e  2109              MOVS     r1,#9
000210  fb010006          MLA      r0,r1,r6,r0
000214  1e40              SUBS     r0,r0,#1
000216  a902              ADD      r1,sp,#8
000218  f841b020          STR      r11,[r1,r0,LSL #2]
00021c  1c76              ADDS     r6,r6,#1              ;343
                  |L7.542|
00021e  2e0c              CMP      r6,#0xc               ;343
000220  dbde              BLT      |L7.480|
                  |L7.546|
000222  1c6d              ADDS     r5,r5,#1              ;341
                  |L7.548|
000224  2d09              CMP      r5,#9                 ;341
000226  dbd4              BLT      |L7.466|
;;;347          }
;;;348        }
;;;349      }
;;;350    
;;;351      for (j = 0; j < 12; j++) {
000228  2600              MOVS     r6,#0
00022a  e033              B        |L7.660|
                  |L7.556|
;;;352        c = 9 * j;
00022c  eb0608c6          ADD      r8,r6,r6,LSL #3
;;;353        for (k = 0; k < 9; k++) {
000230  2700              MOVS     r7,#0
000232  e02c              B        |L7.654|
                  |L7.564|
;;;354          iy = 9 * k;
000234  eb0704c7          ADD      r4,r7,r7,LSL #3
;;;355          if (Y[k + c] != 0.0F) {
000238  eb070108          ADD      r1,r7,r8
00023c  aa02              ADD      r2,sp,#8
00023e  f8520021          LDR      r0,[r2,r1,LSL #2]
000242  2100              MOVS     r1,#0
000244  f7fffffe          BL       __aeabi_cfcmpeq
000248  d020              BEQ      |L7.652|
;;;356            for (jy = k + 2; jy < 10; jy++) {
00024a  1cbd              ADDS     r5,r7,#2
00024c  e01c              B        |L7.648|
                  |L7.590|
;;;357              Y[(jy + c) - 1] -= Y[k + c] * b_A[(jy + iy) - 1];
00024e  192a              ADDS     r2,r5,r4
000250  1e52              SUBS     r2,r2,#1
000252  ab73              ADD      r3,sp,#0x1cc
000254  f8531022          LDR      r1,[r3,r2,LSL #2]
000258  eb070208          ADD      r2,r7,r8
00025c  ab02              ADD      r3,sp,#8
00025e  f8530022          LDR      r0,[r3,r2,LSL #2]
000262  f7fffffe          BL       __aeabi_fmul
000266  9001              STR      r0,[sp,#4]
000268  eb050008          ADD      r0,r5,r8
00026c  1e40              SUBS     r0,r0,#1
00026e  aa02              ADD      r2,sp,#8
000270  f8521020          LDR      r1,[r2,r0,LSL #2]
000274  9801              LDR      r0,[sp,#4]
000276  f7fffffe          BL       __aeabi_frsub
00027a  eb050108          ADD      r1,r5,r8
00027e  1e49              SUBS     r1,r1,#1
000280  aa02              ADD      r2,sp,#8
000282  f8420021          STR      r0,[r2,r1,LSL #2]
000286  1c6d              ADDS     r5,r5,#1              ;356
                  |L7.648|
000288  2d0a              CMP      r5,#0xa               ;356
00028a  dbe0              BLT      |L7.590|
                  |L7.652|
00028c  1c7f              ADDS     r7,r7,#1              ;353
                  |L7.654|
00028e  2f09              CMP      r7,#9                 ;353
000290  dbd0              BLT      |L7.564|
000292  1c76              ADDS     r6,r6,#1              ;351
                  |L7.660|
000294  2e0c              CMP      r6,#0xc               ;351
000296  dbc9              BLT      |L7.556|
;;;358            }
;;;359          }
;;;360        }
;;;361      }
;;;362    
;;;363      for (j = 0; j < 12; j++) {
000298  2600              MOVS     r6,#0
00029a  e041              B        |L7.800|
                  |L7.668|
;;;364        c = 9 * j;
00029c  eb0608c6          ADD      r8,r6,r6,LSL #3
;;;365        for (k = 8; k > -1; k += -1) {
0002a0  2708              MOVS     r7,#8
0002a2  e03a              B        |L7.794|
                  |L7.676|
;;;366          iy = 9 * k;
0002a4  eb0704c7          ADD      r4,r7,r7,LSL #3
;;;367          if (Y[k + c] != 0.0F) {
0002a8  eb070108          ADD      r1,r7,r8
0002ac  aa02              ADD      r2,sp,#8
0002ae  f8520021          LDR      r0,[r2,r1,LSL #2]
0002b2  2100              MOVS     r1,#0
0002b4  f7fffffe          BL       __aeabi_cfcmpeq
0002b8  d02e              BEQ      |L7.792|
;;;368            Y[k + c] /= b_A[k + iy];
0002ba  193a              ADDS     r2,r7,r4
0002bc  ab73              ADD      r3,sp,#0x1cc
0002be  f8531022          LDR      r1,[r3,r2,LSL #2]
0002c2  eb070208          ADD      r2,r7,r8
0002c6  ab02              ADD      r3,sp,#8
0002c8  f8530022          LDR      r0,[r3,r2,LSL #2]
0002cc  f7fffffe          BL       __aeabi_fdiv
0002d0  eb070108          ADD      r1,r7,r8
0002d4  aa02              ADD      r2,sp,#8
0002d6  f8420021          STR      r0,[r2,r1,LSL #2]
;;;369            for (jy = 0; jy + 1 <= k; jy++) {
0002da  2500              MOVS     r5,#0
0002dc  e019              B        |L7.786|
                  |L7.734|
;;;370              Y[jy + c] -= Y[k + c] * b_A[jy + iy];
0002de  192a              ADDS     r2,r5,r4
0002e0  ab73              ADD      r3,sp,#0x1cc
0002e2  f8531022          LDR      r1,[r3,r2,LSL #2]
0002e6  eb070208          ADD      r2,r7,r8
0002ea  ab02              ADD      r3,sp,#8
0002ec  f8530022          LDR      r0,[r3,r2,LSL #2]
0002f0  f7fffffe          BL       __aeabi_fmul
0002f4  9001              STR      r0,[sp,#4]
0002f6  eb050008          ADD      r0,r5,r8
0002fa  aa02              ADD      r2,sp,#8
0002fc  f8521020          LDR      r1,[r2,r0,LSL #2]
000300  9801              LDR      r0,[sp,#4]
000302  f7fffffe          BL       __aeabi_frsub
000306  eb050108          ADD      r1,r5,r8
00030a  aa02              ADD      r2,sp,#8
00030c  f8420021          STR      r0,[r2,r1,LSL #2]
000310  1c6d              ADDS     r5,r5,#1              ;369
                  |L7.786|
000312  1c68              ADDS     r0,r5,#1              ;369
000314  42b8              CMP      r0,r7                 ;369
000316  dde2              BLE      |L7.734|
                  |L7.792|
000318  1e7f              SUBS     r7,r7,#1              ;365
                  |L7.794|
00031a  2f00              CMP      r7,#0                 ;365
00031c  dac2              BGE      |L7.676|
00031e  1c76              ADDS     r6,r6,#1              ;363
                  |L7.800|
000320  2e0c              CMP      r6,#0xc               ;363
000322  dbbb              BLT      |L7.668|
;;;371            }
;;;372          }
;;;373        }
;;;374      }
;;;375    
;;;376      for (i0 = 0; i0 < 9; i0++) {
000324  f04f0900          MOV      r9,#0
000328  e012              B        |L7.848|
                  |L7.810|
;;;377        for (iy = 0; iy < 12; iy++) {
00032a  2400              MOVS     r4,#0
00032c  e00c              B        |L7.840|
                  |L7.814|
;;;378          y[iy + 12 * i0] = Y[i0 + 9 * iy];
00032e  2009              MOVS     r0,#9
000330  fb009004          MLA      r0,r0,r4,r9
000334  a902              ADD      r1,sp,#8
000336  f8511020          LDR      r1,[r1,r0,LSL #2]
00033a  200c              MOVS     r0,#0xc
00033c  fb004209          MLA      r2,r0,r9,r4
000340  98c6              LDR      r0,[sp,#0x318]
000342  f8401022          STR      r1,[r0,r2,LSL #2]
000346  1c64              ADDS     r4,r4,#1              ;377
                  |L7.840|
000348  2c0c              CMP      r4,#0xc               ;377
00034a  dbf0              BLT      |L7.814|
00034c  f1090901          ADD      r9,r9,#1              ;376
                  |L7.848|
000350  f1b90f09          CMP      r9,#9                 ;376
000354  dbe9              BLT      |L7.810|
;;;379        }
;;;380      }
;;;381    }
000356  f50d7d47          ADD      sp,sp,#0x31c
00035a  e8bd8ff0          POP      {r4-r11,pc}
;;;382    
                          ENDP


                          AREA ||i.norm||, CODE, READONLY, ALIGN=1

                  norm PROC
;;;385     */
;;;386    static float norm(const float x[3])
000000  e92d4ffe          PUSH     {r1-r11,lr}
;;;387    {
000004  4606              MOV      r6,r0
;;;388      float y;
;;;389      float scale;
;;;390      int k;
;;;391      float absxk;
;;;392      float t;
;;;393      y = 0.0F;
000006  f04f0900          MOV      r9,#0
;;;394      scale = 1.17549435E-38F;
00000a  46ca              MOV      r10,r9
;;;395      for (k = 0; k < 3; k++) {
00000c  2500              MOVS     r5,#0
00000e  e032              B        |L8.118|
                  |L8.16|
;;;396        absxk = (real32_T)fabs(x[k]);
000010  f8560025          LDR      r0,[r6,r5,LSL #2]
000014  f7fffffe          BL       __aeabi_f2d
000018  f0214100          BIC      r1,r1,#0x80000000
00001c  4607              MOV      r7,r0
00001e  f7fffffe          BL       __aeabi_d2f
000022  4604              MOV      r4,r0
;;;397        if (absxk > scale) {
000024  4651              MOV      r1,r10
000026  4620              MOV      r0,r4
000028  f7fffffe          BL       __aeabi_cfrcmple
00002c  d214              BCS      |L8.88|
;;;398          t = scale / absxk;
00002e  4621              MOV      r1,r4
000030  4650              MOV      r0,r10
000032  f7fffffe          BL       __aeabi_fdiv
000036  9002              STR      r0,[sp,#8]
;;;399          y = 1.0F + y * t * t;
000038  4648              MOV      r0,r9
00003a  9902              LDR      r1,[sp,#8]
00003c  f7fffffe          BL       __aeabi_fmul
000040  4680              MOV      r8,r0
000042  9902              LDR      r1,[sp,#8]
000044  f7fffffe          BL       __aeabi_fmul
000048  4607              MOV      r7,r0
00004a  f04f517e          MOV      r1,#0x3f800000
00004e  f7fffffe          BL       __aeabi_fadd
000052  4681              MOV      r9,r0
;;;400          scale = absxk;
000054  46a2              MOV      r10,r4
000056  e00d              B        |L8.116|
                  |L8.88|
;;;401        } else {
;;;402          t = absxk / scale;
000058  4651              MOV      r1,r10
00005a  4620              MOV      r0,r4
00005c  f7fffffe          BL       __aeabi_fdiv
000060  9002              STR      r0,[sp,#8]
;;;403          y += t * t;
000062  9902              LDR      r1,[sp,#8]
000064  4608              MOV      r0,r1
000066  f7fffffe          BL       __aeabi_fmul
00006a  4607              MOV      r7,r0
00006c  4649              MOV      r1,r9
00006e  f7fffffe          BL       __aeabi_fadd
000072  4681              MOV      r9,r0
                  |L8.116|
000074  1c6d              ADDS     r5,r5,#1              ;395
                  |L8.118|
000076  2d03              CMP      r5,#3                 ;395
000078  dbca              BLT      |L8.16|
;;;404        }
;;;405      }
;;;406    
;;;407      return scale * (real32_T)sqrt(y);
00007a  4648              MOV      r0,r9
00007c  f7fffffe          BL       __aeabi_f2d
000080  e9cd0100          STRD     r0,r1,[sp,#0]
000084  f7fffffe          BL       sqrt
000088  4607              MOV      r7,r0
00008a  f7fffffe          BL       __aeabi_d2f
00008e  4683              MOV      r11,r0
000090  4651              MOV      r1,r10
000092  f7fffffe          BL       __aeabi_fmul
;;;408    }
000096  e8bd8ffe          POP      {r1-r11,pc}
;;;409    
                          ENDP


                          AREA ||.bss||, DATA, NOINIT, ALIGN=2

                  ||Ji||
                          %        36
                  x_apo
                          %        48
                  P_apo
                          %        576
                  Q
                          %        576
                  A_lin
                          %        576
                  b_A_lin
                          %        576
                  P_apr
                          %        576

                          AREA ||.constdata||, DATA, READONLY, ALIGN=2

                  ||fv5||
000000  00000000          DCFS     0x00000000 ; 0
000004  00000000          DCFS     0x00000000 ; 0
000008  00000000          DCFS     0x00000000 ; 0
00000c  00000000          DCFS     0x00000000 ; 0
000010  00000000          DCFS     0x00000000 ; 0
000014  00000000          DCFS     0x00000000 ; 0
000018  00000000          DCFS     0x00000000 ; 0
00001c  00000000          DCFS     0x00000000 ; 0
000020  c11cf5c3          DCFS     0xc11cf5c3 ; -9.8100004196166992
000024  3f800000          DCFS     0x3f800000 ; 1
000028  00000000          DCFS     0x00000000 ; 0
00002c  00000000          DCFS     0x00000000 ; 0
                  iv0
000030  01000000          DCB      0x01,0x00,0x00,0x00
000034  01000000          DCB      0x01,0x00,0x00,0x00
000038  01                DCB      0x01
                  iv1
000039  000000            DCB      0x00,0x00,0x00
00003c  00000000          DCB      0x00,0x00,0x00,0x00
000040  00000100          DCB      0x00,0x00,0x01,0x00
000044  00000100          DCB      0x00,0x00,0x01,0x00
000048  00000100          DCB      0x00,0x00,0x01,0x00
00004c  00000000          DCB      0x00,0x00,0x00,0x00
000050  00000000          DCB      0x00,0x00,0x00,0x00
000054  00000000          DCB      0x00,0x00,0x00,0x00
000058  00000000          DCB      0x00,0x00,0x00,0x00
00005c  00                DCB      0x00
                  b_a
00005d  010000            DCB      0x01,0x00,0x00
000060  00000000          DCB      0x00,0x00,0x00,0x00
000064  00000001          DCB      0x00,0x00,0x00,0x01
000068  00000000          DCB      0x00,0x00,0x00,0x00
00006c  00000000          DCB      0x00,0x00,0x00,0x00
000070  00010000          DCB      0x00,0x01,0x00,0x00
000074  00000000          DCB      0x00,0x00,0x00,0x00
000078  00000000          DCB      0x00,0x00,0x00,0x00
00007c  00000000          DCB      0x00,0x00,0x00,0x00
000080  00000000          DCB      0x00,0x00,0x00,0x00
000084  00000000          DCB      0x00,0x00,0x00,0x00
000088  00000000          DCB      0x00,0x00,0x00,0x00
00008c  00000000          DCB      0x00,0x00,0x00,0x00
000090  00000000          DCB      0x00,0x00,0x00,0x00
000094  00000100          DCB      0x00,0x00,0x01,0x00
000098  00000000          DCB      0x00,0x00,0x00,0x00
00009c  00000000          DCB      0x00,0x00,0x00,0x00
0000a0  01000000          DCB      0x01,0x00,0x00,0x00
0000a4  00000000          DCB      0x00,0x00,0x00,0x00
0000a8  00000100          DCB      0x00,0x00,0x01,0x00
0000ac  00000000          DCB      0x00,0x00,0x00,0x00
0000b0  00000000          DCB      0x00,0x00,0x00,0x00
0000b4  01000000          DCB      0x01,0x00,0x00,0x00
0000b8  00000000          DCB      0x00,0x00,0x00,0x00
0000bc  00000100          DCB      0x00,0x00,0x01,0x00
0000c0  00000000          DCB      0x00,0x00,0x00,0x00
0000c4  00000000          DCB      0x00,0x00,0x00,0x00
0000c8  01                DCB      0x01
                  b
0000c9  010000            DCB      0x01,0x00,0x00
0000cc  00000000          DCB      0x00,0x00,0x00,0x00
0000d0  00000000          DCB      0x00,0x00,0x00,0x00
0000d4  00000100          DCB      0x00,0x00,0x01,0x00
0000d8  00000000          DCB      0x00,0x00,0x00,0x00
0000dc  00000000          DCB      0x00,0x00,0x00,0x00
0000e0  00000001          DCB      0x00,0x00,0x00,0x01
0000e4  00000000          DCB      0x00,0x00,0x00,0x00
0000e8  00000000          DCB      0x00,0x00,0x00,0x00
0000ec  00000000          DCB      0x00,0x00,0x00,0x00
0000f0  00000001          DCB      0x00,0x00,0x00,0x01
0000f4  00000000          DCB      0x00,0x00,0x00,0x00
0000f8  00000000          DCB      0x00,0x00,0x00,0x00
0000fc  00000000          DCB      0x00,0x00,0x00,0x00
000100  01000000          DCB      0x01,0x00,0x00,0x00
000104  00000000          DCB      0x00,0x00,0x00,0x00
000108  00000000          DCB      0x00,0x00,0x00,0x00
00010c  00010000          DCB      0x00,0x01,0x00,0x00
000110  00000000          DCB      0x00,0x00,0x00,0x00
000114  00000000          DCB      0x00,0x00,0x00,0x00
000118  00000100          DCB      0x00,0x00,0x01,0x00
00011c  00000000          DCB      0x00,0x00,0x00,0x00
000120  00000000          DCB      0x00,0x00,0x00,0x00
000124  00000001          DCB      0x00,0x00,0x00,0x01
000128  00000000          DCB      0x00,0x00,0x00,0x00
00012c  00000000          DCB      0x00,0x00,0x00,0x00
000130  00000000          DCB      0x00,0x00,0x00,0x00
000134  01                DCB      0x01
                  ||c_a||
000135  010000            DCB      0x01,0x00,0x00
000138  00010000          DCB      0x00,0x01,0x00,0x00
00013c  00010000          DCB      0x00,0x01,0x00,0x00
000140  00000000          DCB      0x00,0x00,0x00,0x00
000144  00000000          DCB      0x00,0x00,0x00,0x00
000148  00000000          DCB      0x00,0x00,0x00,0x00
00014c  00000000          DCB      0x00,0x00,0x00,0x00
000150  00000000          DCB      0x00,0x00,0x00,0x00
000154  00000000          DCB      0x00,0x00,0x00,0x00
000158  00                DCB      0x00
                  b_b
000159  010000            DCB      0x01,0x00,0x00
00015c  00000000          DCB      0x00,0x00,0x00,0x00
000160  00000000          DCB      0x00,0x00,0x00,0x00
000164  00000100          DCB      0x00,0x00,0x01,0x00
000168  00000000          DCB      0x00,0x00,0x00,0x00
00016c  00000000          DCB      0x00,0x00,0x00,0x00
000170  00000001          DCB      0x00,0x00,0x00,0x01
000174  00000000          DCB      0x00,0x00,0x00,0x00
000178  00000000          DCB      0x00,0x00,0x00,0x00
00017c  00                DCB      0x00
                  e_a
00017d  010000            DCB      0x01,0x00,0x00
000180  00000000          DCB      0x00,0x00,0x00,0x00
000184  01000000          DCB      0x01,0x00,0x00,0x00
000188  00000001          DCB      0x00,0x00,0x00,0x01
00018c  00000000          DCB      0x00,0x00,0x00,0x00
000190  00000000          DCB      0x00,0x00,0x00,0x00
000194  00000000          DCB      0x00,0x00,0x00,0x00
000198  00000000          DCB      0x00,0x00,0x00,0x00
00019c  00000000          DCB      0x00,0x00,0x00,0x00
0001a0  00000000          DCB      0x00,0x00,0x00,0x00
0001a4  01000000          DCB      0x01,0x00,0x00,0x00
0001a8  00000001          DCB      0x00,0x00,0x00,0x01
0001ac  00000000          DCB      0x00,0x00,0x00,0x00
0001b0  00000100          DCB      0x00,0x00,0x01,0x00
0001b4  00000000          DCB      0x00,0x00,0x00,0x00
0001b8  00000000          DCB      0x00,0x00,0x00,0x00
0001bc  00000000          DCB      0x00,0x00,0x00,0x00
0001c0  00000000          DCB      0x00,0x00,0x00,0x00
0001c4  00                DCB      0x00
                  ||c_b||
0001c5  010000            DCB      0x01,0x00,0x00
0001c8  00000000          DCB      0x00,0x00,0x00,0x00
0001cc  00000000          DCB      0x00,0x00,0x00,0x00
0001d0  00000100          DCB      0x00,0x00,0x01,0x00
0001d4  00000000          DCB      0x00,0x00,0x00,0x00
0001d8  00000000          DCB      0x00,0x00,0x00,0x00
0001dc  00000001          DCB      0x00,0x00,0x00,0x01
0001e0  00000000          DCB      0x00,0x00,0x00,0x00
0001e4  00000000          DCB      0x00,0x00,0x00,0x00
0001e8  00000000          DCB      0x00,0x00,0x00,0x00
0001ec  00000001          DCB      0x00,0x00,0x00,0x01
0001f0  00000000          DCB      0x00,0x00,0x00,0x00
0001f4  00000000          DCB      0x00,0x00,0x00,0x00
0001f8  00000000          DCB      0x00,0x00,0x00,0x00
0001fc  01000000          DCB      0x01,0x00,0x00,0x00
000200  00000000          DCB      0x00,0x00,0x00,0x00
000204  00000000          DCB      0x00,0x00,0x00,0x00
000208  00010000          DCB      0x00,0x01,0x00,0x00
00020c  00                DCB      0x00
                  ||f_a||
00020d  010000            DCB      0x01,0x00,0x00
000210  00000000          DCB      0x00,0x00,0x00,0x00
000214  01000000          DCB      0x01,0x00,0x00,0x00
000218  00000001          DCB      0x00,0x00,0x00,0x01
00021c  00000000          DCB      0x00,0x00,0x00,0x00
000220  00000000          DCB      0x00,0x00,0x00,0x00
000224  00000000          DCB      0x00,0x00,0x00,0x00
000228  00000000          DCB      0x00,0x00,0x00,0x00
00022c  00000000          DCB      0x00,0x00,0x00,0x00
000230  00000000          DCB      0x00,0x00,0x00,0x00
000234  00000000          DCB      0x00,0x00,0x00,0x00
000238  00000000          DCB      0x00,0x00,0x00,0x00
00023c  00000000          DCB      0x00,0x00,0x00,0x00
000240  00000000          DCB      0x00,0x00,0x00,0x00
000244  00000100          DCB      0x00,0x00,0x01,0x00
000248  00000000          DCB      0x00,0x00,0x00,0x00
00024c  00010000          DCB      0x00,0x01,0x00,0x00
000250  00000000          DCB      0x00,0x00,0x00,0x00
000254  01                DCB      0x01
                  ||d_b||
000255  010000            DCB      0x01,0x00,0x00
000258  00000000          DCB      0x00,0x00,0x00,0x00
00025c  00000000          DCB      0x00,0x00,0x00,0x00
000260  00000100          DCB      0x00,0x00,0x01,0x00
000264  00000000          DCB      0x00,0x00,0x00,0x00
000268  00000000          DCB      0x00,0x00,0x00,0x00
00026c  00000001          DCB      0x00,0x00,0x00,0x01
000270  00000000          DCB      0x00,0x00,0x00,0x00
000274  00000000          DCB      0x00,0x00,0x00,0x00
000278  00000000          DCB      0x00,0x00,0x00,0x00
00027c  00000000          DCB      0x00,0x00,0x00,0x00
000280  00000100          DCB      0x00,0x00,0x01,0x00
000284  00000000          DCB      0x00,0x00,0x00,0x00
000288  00000000          DCB      0x00,0x00,0x00,0x00
00028c  00000001          DCB      0x00,0x00,0x00,0x01
000290  00000000          DCB      0x00,0x00,0x00,0x00
000294  00000000          DCB      0x00,0x00,0x00,0x00
000298  00000000          DCB      0x00,0x00,0x00,0x00
00029c  01                DCB      0x01

                          AREA ||.data||, DATA, ALIGN=0

                  Ji_not_empty
000000  00                DCB      0x00
                  Q_not_empty
000001  00                DCB      0x00
